native/nativelibs/db-cross-v4/prebuilt/darwin/electron/db-cross-v4-native.node:
(__TEXT,__text) section
__ZNK4Napi5Error4whatEv:
    2310:	55	pushq	%rbp
    2311:	48 89 e5	movq	%rsp, %rbp
    2314:	41 56	pushq	%r14
    2316:	53	pushq	%rbx
    2317:	48 83 ec 30	subq	$0x30, %rsp
    231b:	49 89 fe	movq	%rdi, %r14
    231e:	0f b6 47 20	movzbl	0x20(%rdi), %eax
    2322:	a8 01	testb	$0x1, %al
    2324:	75 0e	jne	0x2334
    2326:	48 d1 e8	shrq	%rax
    2329:	49 8d 5e 20	leaq	0x20(%r14), %rbx
    232d:	48 85 c0	testq	%rax, %rax
    2330:	75 60	jne	0x2392
    2332:	eb 0d	jmp	0x2341
    2334:	49 8b 46 28	movq	0x28(%r14), %rax
    2338:	49 8d 5e 20	leaq	0x20(%r14), %rbx
    233c:	48 85 c0	testq	%rax, %rax
    233f:	75 51	jne	0x2392
    2341:	49 83 7e 08 00	cmpq	$0x0, 0x8(%r14)
    2346:	74 4a	je	0x2392
    2348:	49 8d 7e 08	leaq	0x8(%r14), %rdi
    234c:	48 8d 35 c1 8a 02 00	leaq	0x28ac1(%rip), %rsi ## literal pool for: "message"
    2353:	e8 f8 2b 00 00	callq	__ZNK4Napi15ObjectReference3GetEPKc ## Napi::ObjectReference::Get(char const*) const
    2358:	48 89 45 e0	movq	%rax, -0x20(%rbp)
    235c:	48 89 55 e8	movq	%rdx, -0x18(%rbp)
    2360:	48 8d 7d c8	leaq	-0x38(%rbp), %rdi
    2364:	48 8d 75 e0	leaq	-0x20(%rbp), %rsi
    2368:	e8 73 0d 00 00	callq	__ZNK4Napi6String9Utf8ValueEv ## Napi::String::Utf8Value() const
    236d:	f6 03 01	testb	$0x1, (%rbx)
    2370:	74 09	je	0x237b
    2372:	49 8b 7e 30	movq	0x30(%r14), %rdi
    2376:	e8 47 66 02 00	callq	0x289c2 ## symbol stub for: __ZdlPv
    237b:	48 8b 45 d8	movq	-0x28(%rbp), %rax
    237f:	48 89 43 10	movq	%rax, 0x10(%rbx)
    2383:	48 8b 45 c8	movq	-0x38(%rbp), %rax
    2387:	48 8b 4d d0	movq	-0x30(%rbp), %rcx
    238b:	48 89 4b 08	movq	%rcx, 0x8(%rbx)
    238f:	48 89 03	movq	%rax, (%rbx)
    2392:	f6 03 01	testb	$0x1, (%rbx)
    2395:	75 05	jne	0x239c
    2397:	48 ff c3	incq	%rbx
    239a:	eb 04	jmp	0x23a0
    239c:	49 8b 5e 30	movq	0x30(%r14), %rbx
    23a0:	48 89 d8	movq	%rbx, %rax
    23a3:	48 83 c4 30	addq	$0x30, %rsp
    23a7:	5b	popq	%rbx
    23a8:	41 5e	popq	%r14
    23aa:	5d	popq	%rbp
    23ab:	c3	retq
    23ac:	48 89 c7	movq	%rax, %rdi
    23af:	e8 38 66 02 00	callq	0x289ec ## symbol stub for: ___cxa_begin_catch
    23b4:	e8 39 66 02 00	callq	0x289f2 ## symbol stub for: ___cxa_end_catch
    23b9:	eb d7	jmp	0x2392
    23bb:	48 89 c7	movq	%rax, %rdi
    23be:	e8 0d 00 00 00	callq	___clang_call_terminate
    23c3:	66 2e 0f 1f 84 00 00 00 00 00	nopw	%cs:(%rax,%rax)
    23cd:	0f 1f 00	nopl	(%rax)
___clang_call_terminate:
    23d0:	50	pushq	%rax
    23d1:	e8 16 66 02 00	callq	0x289ec ## symbol stub for: ___cxa_begin_catch
    23d6:	e8 db 65 02 00	callq	0x289b6 ## symbol stub for: __ZSt9terminatev
    23db:	0f 1f 44 00 00	nopl	(%rax,%rax)
__Z10GetVersionRKN4Napi12CallbackInfoE:
    23e0:	55	pushq	%rbp
    23e1:	48 89 e5	movq	%rsp, %rbp
    23e4:	41 56	pushq	%r14
    23e6:	53	pushq	%rbx
    23e7:	48 83 ec 10	subq	$0x10, %rsp
    23eb:	48 8b 5f 08	movq	0x8(%rdi), %rbx
    23ef:	48 8d 35 2a 89 02 00	leaq	0x2892a(%rip), %rsi ## literal pool for: "1.0.0"
    23f6:	48 8d 4d e8	leaq	-0x18(%rbp), %rcx
    23fa:	ba 05 00 00 00	movl	$0x5, %edx
    23ff:	48 89 df	movq	%rbx, %rdi
    2402:	e8 ed 66 02 00	callq	0x28af4 ## symbol stub for: _napi_create_string_utf8
    2407:	85 c0	testl	%eax, %eax
    2409:	75 10	jne	0x241b
    240b:	48 8b 55 e8	movq	-0x18(%rbp), %rdx
    240f:	48 89 d8	movq	%rbx, %rax
    2412:	48 83 c4 10	addq	$0x10, %rsp
    2416:	5b	popq	%rbx
    2417:	41 5e	popq	%r14
    2419:	5d	popq	%rbp
    241a:	c3	retq
    241b:	bf 38 00 00 00	movl	$0x38, %edi
    2420:	e8 bb 65 02 00	callq	0x289e0 ## symbol stub for: ___cxa_allocate_exception
    2425:	49 89 c6	movq	%rax, %r14
    2428:	48 89 c7	movq	%rax, %rdi
    242b:	48 89 de	movq	%rbx, %rsi
    242e:	e8 cd 2c 00 00	callq	__ZN4Napi5Error3NewEP10napi_env__ ## Napi::Error::New(napi_env__*)
    2433:	48 8b 35 0e 9c 02 00	movq	0x29c0e(%rip), %rsi ## literal pool symbol address: __ZTIN4Napi5ErrorE
    243a:	48 8b 15 c7 9b 02 00	movq	0x29bc7(%rip), %rdx
    2441:	4c 89 f7	movq	%r14, %rdi
    2444:	e8 b5 65 02 00	callq	0x289fe ## symbol stub for: ___cxa_throw
    2449:	48 89 c3	movq	%rax, %rbx
    244c:	4c 89 f7	movq	%r14, %rdi
    244f:	e8 a4 65 02 00	callq	0x289f8 ## symbol stub for: ___cxa_free_exception
    2454:	48 89 df	movq	%rbx, %rdi
    2457:	e8 76 64 02 00	callq	0x288d2 ## symbol stub for: __Unwind_Resume
    245c:	0f 0b	ud2
    245e:	66 90	nop
__Z22DecompressAndDecryptDbRKN4Napi12CallbackInfoE:
    2460:	55	pushq	%rbp
    2461:	48 89 e5	movq	%rsp, %rbp
    2464:	41 57	pushq	%r15
    2466:	41 56	pushq	%r14
    2468:	41 54	pushq	%r12
    246a:	53	pushq	%rbx
    246b:	48 81 ec 90 00 00 00	subq	$0x90, %rsp
    2472:	48 89 fb	movq	%rdi, %rbx
    2475:	4c 8b 77 08	movq	0x8(%rdi), %r14
    2479:	48 8d 75 b8	leaq	-0x48(%rbp), %rsi
    247d:	4c 89 f7	movq	%r14, %rdi
    2480:	e8 63 66 02 00	callq	0x28ae8 ## symbol stub for: _napi_create_object
    2485:	85 c0	testl	%eax, %eax
    2487:	0f 85 5d 04 00 00	jne	0x28ea
    248d:	48 8b 45 b8	movq	-0x48(%rbp), %rax
    2491:	4c 89 75 d0	movq	%r14, -0x30(%rbp)
    2495:	48 89 45 d8	movq	%rax, -0x28(%rbp)
    2499:	48 83 7b 20 03	cmpq	$0x3, 0x20(%rbx)
    249e:	75 57	jne	0x24f7
    24a0:	48 8b 43 28	movq	0x28(%rbx), %rax
    24a4:	48 8b 30	movq	(%rax), %rsi
    24a7:	48 85 f6	testq	%rsi, %rsi
    24aa:	0f 84 62 01 00 00	je	0x2612
    24b0:	4c 8b 7b 08	movq	0x8(%rbx), %r15
    24b4:	48 8d 55 b8	leaq	-0x48(%rbp), %rdx
    24b8:	4c 89 ff	movq	%r15, %rdi
    24bb:	e8 d0 66 02 00	callq	0x28b90 ## symbol stub for: _napi_typeof
    24c0:	85 c0	testl	%eax, %eax
    24c2:	0f 85 dd 04 00 00	jne	0x29a5
    24c8:	83 7d b8 04	cmpl	$0x4, -0x48(%rbp)
    24cc:	0f 85 40 01 00 00	jne	0x2612
    24d2:	4c 8b 7b 08	movq	0x8(%rbx), %r15
    24d6:	48 83 7b 20 02	cmpq	$0x2, 0x20(%rbx)
    24db:	0f 82 8f 00 00 00	jb	0x2570
    24e1:	48 8b 43 28	movq	0x28(%rbx), %rax
    24e5:	48 8b 70 08	movq	0x8(%rax), %rsi
    24e9:	48 85 f6	testq	%rsi, %rsi
    24ec:	0f 85 9f 00 00 00	jne	0x2591
    24f2:	e9 1b 01 00 00	jmp	0x2612
    24f7:	f2 0f 10 05 a1 82 02 00	movsd	0x282a1(%rip), %xmm0
    24ff:	48 8d 75 b8	leaq	-0x48(%rbp), %rsi
    2503:	4c 89 f7	movq	%r14, %rdi
    2506:	e8 c5 65 02 00	callq	0x28ad0 ## symbol stub for: _napi_create_double
    250b:	85 c0	testl	%eax, %eax
    250d:	0f 85 f4 03 00 00	jne	0x2907
    2513:	48 8b 4d b8	movq	-0x48(%rbp), %rcx
    2517:	48 8b 7d d0	movq	-0x30(%rbp), %rdi
    251b:	48 8b 75 d8	movq	-0x28(%rbp), %rsi
    251f:	48 8d 15 00 88 02 00	leaq	0x28800(%rip), %rdx ## literal pool for: "result"
    2526:	e8 53 66 02 00	callq	0x28b7e ## symbol stub for: _napi_set_named_property
    252b:	85 c0	testl	%eax, %eax
    252d:	0f 85 ee 03 00 00	jne	0x2921
    2533:	48 8d 35 01 88 02 00	leaq	0x28801(%rip), %rsi ## literal pool for: "Wrong number of arguments"
    253a:	48 8d 4d b8	leaq	-0x48(%rbp), %rcx
    253e:	ba 19 00 00 00	movl	$0x19, %edx
    2543:	4c 89 f7	movq	%r14, %rdi
    2546:	e8 a9 65 02 00	callq	0x28af4 ## symbol stub for: _napi_create_string_utf8
    254b:	85 c0	testl	%eax, %eax
    254d:	0f 84 1b 01 00 00	je	0x266e
    2553:	bf 38 00 00 00	movl	$0x38, %edi
    2558:	e8 83 64 02 00	callq	0x289e0 ## symbol stub for: ___cxa_allocate_exception
    255d:	49 89 c7	movq	%rax, %r15
    2560:	48 89 c7	movq	%rax, %rdi
    2563:	4c 89 f6	movq	%r14, %rsi
    2566:	e8 95 2b 00 00	callq	__ZN4Napi5Error3NewEP10napi_env__ ## Napi::Error::New(napi_env__*)
    256b:	e9 1f 04 00 00	jmp	0x298f
    2570:	48 8d 75 b8	leaq	-0x48(%rbp), %rsi
    2574:	4c 89 ff	movq	%r15, %rdi
    2577:	e8 d2 65 02 00	callq	0x28b4e ## symbol stub for: _napi_get_undefined
    257c:	85 c0	testl	%eax, %eax
    257e:	0f 85 55 04 00 00	jne	0x29d9
    2584:	48 8b 75 b8	movq	-0x48(%rbp), %rsi
    2588:	48 85 f6	testq	%rsi, %rsi
    258b:	0f 84 81 00 00 00	je	0x2612
    2591:	48 8d 55 b8	leaq	-0x48(%rbp), %rdx
    2595:	4c 89 ff	movq	%r15, %rdi
    2598:	e8 f3 65 02 00	callq	0x28b90 ## symbol stub for: _napi_typeof
    259d:	85 c0	testl	%eax, %eax
    259f:	0f 85 1a 04 00 00	jne	0x29bf
    25a5:	83 7d b8 04	cmpl	$0x4, -0x48(%rbp)
    25a9:	75 67	jne	0x2612
    25ab:	4c 8b 7b 08	movq	0x8(%rbx), %r15
    25af:	48 83 7b 20 03	cmpq	$0x3, 0x20(%rbx)
    25b4:	72 0a	jb	0x25c0
    25b6:	48 8b 43 28	movq	0x28(%rbx), %rax
    25ba:	48 8b 70 10	movq	0x10(%rax), %rsi
    25be:	eb 18	jmp	0x25d8
    25c0:	48 8d 75 b8	leaq	-0x48(%rbp), %rsi
    25c4:	4c 89 ff	movq	%r15, %rdi
    25c7:	e8 82 65 02 00	callq	0x28b4e ## symbol stub for: _napi_get_undefined
    25cc:	85 c0	testl	%eax, %eax
    25ce:	0f 85 39 04 00 00	jne	0x2a0d
    25d4:	48 8b 75 b8	movq	-0x48(%rbp), %rsi
    25d8:	48 85 f6	testq	%rsi, %rsi
    25db:	74 35	je	0x2612
    25dd:	48 8d 55 b8	leaq	-0x48(%rbp), %rdx
    25e1:	4c 89 ff	movq	%r15, %rdi
    25e4:	e8 a7 65 02 00	callq	0x28b90 ## symbol stub for: _napi_typeof
    25e9:	85 c0	testl	%eax, %eax
    25eb:	0f 85 02 04 00 00	jne	0x29f3
    25f1:	83 7d b8 04	cmpl	$0x4, -0x48(%rbp)
    25f5:	75 1b	jne	0x2612
    25f7:	48 83 7b 20 00	cmpq	$0x0, 0x20(%rbx)
    25fc:	4c 8b 7b 08	movq	0x8(%rbx), %r15
    2600:	0f 84 a6 00 00 00	je	0x26ac
    2606:	48 8b 43 28	movq	0x28(%rbx), %rax
    260a:	48 8b 00	movq	(%rax), %rax
    260d:	e9 b8 00 00 00	jmp	0x26ca
    2612:	f2 0f 10 05 a6 81 02 00	movsd	0x281a6(%rip), %xmm0
    261a:	48 8d 75 b8	leaq	-0x48(%rbp), %rsi
    261e:	4c 89 f7	movq	%r14, %rdi
    2621:	e8 aa 64 02 00	callq	0x28ad0 ## symbol stub for: _napi_create_double
    2626:	85 c0	testl	%eax, %eax
    2628:	0f 85 11 03 00 00	jne	0x293f
    262e:	48 8b 4d b8	movq	-0x48(%rbp), %rcx
    2632:	48 8b 7d d0	movq	-0x30(%rbp), %rdi
    2636:	48 8b 75 d8	movq	-0x28(%rbp), %rsi
    263a:	48 8d 15 e5 86 02 00	leaq	0x286e5(%rip), %rdx ## literal pool for: "result"
    2641:	e8 38 65 02 00	callq	0x28b7e ## symbol stub for: _napi_set_named_property
    2646:	85 c0	testl	%eax, %eax
    2648:	0f 85 0b 03 00 00	jne	0x2959
    264e:	48 8d 35 00 87 02 00	leaq	0x28700(%rip), %rsi ## literal pool for: "Wrong arguments"
    2655:	48 8d 4d b8	leaq	-0x48(%rbp), %rcx
    2659:	ba 0f 00 00 00	movl	$0xf, %edx
    265e:	4c 89 f7	movq	%r14, %rdi
    2661:	e8 8e 64 02 00	callq	0x28af4 ## symbol stub for: _napi_create_string_utf8
    2666:	85 c0	testl	%eax, %eax
    2668:	0f 85 09 03 00 00	jne	0x2977
    266e:	48 8b 45 b8	movq	-0x48(%rbp), %rax
    2672:	4c 89 75 b8	movq	%r14, -0x48(%rbp)
    2676:	48 89 45 c0	movq	%rax, -0x40(%rbp)
    267a:	48 8d 35 ac 86 02 00	leaq	0x286ac(%rip), %rsi ## literal pool for: "error_message"
    2681:	48 8d 7d d0	leaq	-0x30(%rbp), %rdi
    2685:	48 8d 55 b8	leaq	-0x48(%rbp), %rdx
    2689:	e8 82 09 00 00	callq	__ZN4Napi6Object3SetINS_6StringEEEvPKcRKT_ ## void Napi::Object::Set<Napi::String>(char const*, Napi::String const&)
    268e:	4c 8b 75 d0	movq	-0x30(%rbp), %r14
    2692:	48 8b 5d d8	movq	-0x28(%rbp), %rbx
    2696:	4c 89 f0	movq	%r14, %rax
    2699:	48 89 da	movq	%rbx, %rdx
    269c:	48 81 c4 90 00 00 00	addq	$0x90, %rsp
    26a3:	5b	popq	%rbx
    26a4:	41 5c	popq	%r12
    26a6:	41 5e	popq	%r14
    26a8:	41 5f	popq	%r15
    26aa:	5d	popq	%rbp
    26ab:	c3	retq
    26ac:	48 8d b5 78 ff ff ff	leaq	-0x88(%rbp), %rsi
    26b3:	4c 89 ff	movq	%r15, %rdi
    26b6:	e8 93 64 02 00	callq	0x28b4e ## symbol stub for: _napi_get_undefined
    26bb:	85 c0	testl	%eax, %eax
    26bd:	0f 85 dc 04 00 00	jne	0x2b9f
    26c3:	48 8b 85 78 ff ff ff	movq	-0x88(%rbp), %rax
    26ca:	4c 89 bd 78 ff ff ff	movq	%r15, -0x88(%rbp)
    26d1:	48 89 45 80	movq	%rax, -0x80(%rbp)
    26d5:	48 8d 7d b8	leaq	-0x48(%rbp), %rdi
    26d9:	48 8d b5 78 ff ff ff	leaq	-0x88(%rbp), %rsi
    26e0:	e8 fb 09 00 00	callq	__ZNK4Napi6String9Utf8ValueEv ## Napi::String::Utf8Value() const
    26e5:	4c 8b 7b 08	movq	0x8(%rbx), %r15
    26e9:	48 83 7b 20 02	cmpq	$0x2, 0x20(%rbx)
    26ee:	72 0a	jb	0x26fa
    26f0:	48 8b 43 28	movq	0x28(%rbx), %rax
    26f4:	48 8b 40 08	movq	0x8(%rax), %rax
    26f8:	eb 18	jmp	0x2712
    26fa:	48 8d 75 a8	leaq	-0x58(%rbp), %rsi
    26fe:	4c 89 ff	movq	%r15, %rdi
    2701:	e8 48 64 02 00	callq	0x28b4e ## symbol stub for: _napi_get_undefined
    2706:	85 c0	testl	%eax, %eax
    2708:	0f 85 2e 04 00 00	jne	0x2b3c
    270e:	48 8b 45 a8	movq	-0x58(%rbp), %rax
    2712:	4c 89 bd 58 ff ff ff	movq	%r15, -0xa8(%rbp)
    2719:	48 89 85 60 ff ff ff	movq	%rax, -0xa0(%rbp)
    2720:	48 8d bd 78 ff ff ff	leaq	-0x88(%rbp), %rdi
    2727:	48 8d b5 58 ff ff ff	leaq	-0xa8(%rbp), %rsi
    272e:	e8 ad 09 00 00	callq	__ZNK4Napi6String9Utf8ValueEv ## Napi::String::Utf8Value() const
    2733:	4c 8b 7b 08	movq	0x8(%rbx), %r15
    2737:	48 83 7b 20 03	cmpq	$0x3, 0x20(%rbx)
    273c:	72 0a	jb	0x2748
    273e:	48 8b 43 28	movq	0x28(%rbx), %rax
    2742:	48 8b 40 10	movq	0x10(%rax), %rax
    2746:	eb 18	jmp	0x2760
    2748:	48 8d 75 90	leaq	-0x70(%rbp), %rsi
    274c:	4c 89 ff	movq	%r15, %rdi
    274f:	e8 fa 63 02 00	callq	0x28b4e ## symbol stub for: _napi_get_undefined
    2754:	85 c0	testl	%eax, %eax
    2756:	0f 85 13 04 00 00	jne	0x2b6f
    275c:	48 8b 45 90	movq	-0x70(%rbp), %rax
    2760:	4c 89 7d a8	movq	%r15, -0x58(%rbp)
    2764:	48 89 45 b0	movq	%rax, -0x50(%rbp)
    2768:	48 8d bd 58 ff ff ff	leaq	-0xa8(%rbp), %rdi
    276f:	48 8d 75 a8	leaq	-0x58(%rbp), %rsi
    2773:	e8 68 09 00 00	callq	__ZNK4Napi6String9Utf8ValueEv ## Napi::String::Utf8Value() const
    2778:	48 8d 7d a0	leaq	-0x60(%rbp), %rdi
    277c:	48 8d 75 b8	leaq	-0x48(%rbp), %rsi
    2780:	48 8d 95 78 ff ff ff	leaq	-0x88(%rbp), %rdx
    2787:	48 8d 8d 58 ff ff ff	leaq	-0xa8(%rbp), %rcx
    278e:	e8 ed 33 00 00	callq	__ZN18CrossBackupFormat07decryptERKNSt3__112basic_stringIcNS0_11char_traitsIcEENS0_9allocatorIcEEEES8_S8_ ## CrossBackupFormat0::decrypt(std::__1::basic_string<char, std::__1::char_traits<char>, std::__1::allocator<char>> const&, std::__1::basic_string<char, std::__1::char_traits<char>, std::__1::allocator<char>> const&, std::__1::basic_string<char, std::__1::char_traits<char>, std::__1::allocator<char>> const&)
    2793:	89 c3	movl	%eax, %ebx
    2795:	85 c0	testl	%eax, %eax
    2797:	0f 8e b9 00 00 00	jle	0x2856
    279d:	f2 0f 10 05 03 80 02 00	movsd	0x28003(%rip), %xmm0
    27a5:	48 8d 75 98	leaq	-0x68(%rbp), %rsi
    27a9:	4c 89 f7	movq	%r14, %rdi
    27ac:	e8 1f 63 02 00	callq	0x28ad0 ## symbol stub for: _napi_create_double
    27b1:	85 c0	testl	%eax, %eax
    27b3:	0f 85 82 02 00 00	jne	0x2a3b
    27b9:	48 8b 4d 98	movq	-0x68(%rbp), %rcx
    27bd:	48 8b 7d d0	movq	-0x30(%rbp), %rdi
    27c1:	48 8b 75 d8	movq	-0x28(%rbp), %rsi
    27c5:	48 8d 15 5a 85 02 00	leaq	0x2855a(%rip), %rdx ## literal pool for: "result"
    27cc:	e8 ad 63 02 00	callq	0x28b7e ## symbol stub for: _napi_set_named_property
    27d1:	85 c0	testl	%eax, %eax
    27d3:	0f 85 95 02 00 00	jne	0x2a6e
    27d9:	0f 57 c0	xorps	%xmm0, %xmm0
    27dc:	f2 0f 2a c3	cvtsi2sd	%ebx, %xmm0
    27e0:	48 8d 75 98	leaq	-0x68(%rbp), %rsi
    27e4:	4c 89 f7	movq	%r14, %rdi
    27e7:	e8 e4 62 02 00	callq	0x28ad0 ## symbol stub for: _napi_create_double
    27ec:	85 c0	testl	%eax, %eax
    27ee:	0f 85 ae 02 00 00	jne	0x2aa2
    27f4:	48 8b 4d 98	movq	-0x68(%rbp), %rcx
    27f8:	48 8b 7d d0	movq	-0x30(%rbp), %rdi
    27fc:	48 8b 75 d8	movq	-0x28(%rbp), %rsi
    2800:	48 8d 15 5e 85 02 00	leaq	0x2855e(%rip), %rdx ## literal pool for: "inner_error"
    2807:	e8 72 63 02 00	callq	0x28b7e ## symbol stub for: _napi_set_named_property
    280c:	85 c0	testl	%eax, %eax
    280e:	0f 85 c1 02 00 00	jne	0x2ad5
    2814:	48 8d 35 56 85 02 00	leaq	0x28556(%rip), %rsi ## literal pool for: "Something went wrong while decrypting"
    281b:	48 8d 4d 98	leaq	-0x68(%rbp), %rcx
    281f:	ba 25 00 00 00	movl	$0x25, %edx
    2824:	4c 89 f7	movq	%r14, %rdi
    2827:	e8 c8 62 02 00	callq	0x28af4 ## symbol stub for: _napi_create_string_utf8
    282c:	85 c0	testl	%eax, %eax
    282e:	0f 85 d5 02 00 00	jne	0x2b09
    2834:	48 8b 45 98	movq	-0x68(%rbp), %rax
    2838:	4c 89 75 a8	movq	%r14, -0x58(%rbp)
    283c:	48 89 45 b0	movq	%rax, -0x50(%rbp)
    2840:	48 8d 35 e6 84 02 00	leaq	0x284e6(%rip), %rsi ## literal pool for: "error_message"
    2847:	48 8d 7d d0	leaq	-0x30(%rbp), %rdi
    284b:	48 8d 55 a8	leaq	-0x58(%rbp), %rdx
    284f:	e8 bc 07 00 00	callq	__ZN4Napi6Object3SetINS_6StringEEEvPKcRKT_ ## void Napi::Object::Set<Napi::String>(char const*, Napi::String const&)
    2854:	eb 38	jmp	0x288e
    2856:	48 8d 75 98	leaq	-0x68(%rbp), %rsi
    285a:	66 0f 57 c0	xorpd	%xmm0, %xmm0
    285e:	4c 89 f7	movq	%r14, %rdi
    2861:	e8 6a 62 02 00	callq	0x28ad0 ## symbol stub for: _napi_create_double
    2866:	85 c0	testl	%eax, %eax
    2868:	0f 85 4e 03 00 00	jne	0x2bbc
    286e:	48 8b 4d 98	movq	-0x68(%rbp), %rcx
    2872:	48 8b 7d d0	movq	-0x30(%rbp), %rdi
    2876:	48 8b 75 d8	movq	-0x28(%rbp), %rsi
    287a:	48 8d 15 a5 84 02 00	leaq	0x284a5(%rip), %rdx ## literal pool for: "result"
    2881:	e8 f8 62 02 00	callq	0x28b7e ## symbol stub for: _napi_set_named_property
    2886:	85 c0	testl	%eax, %eax
    2888:	0f 85 5e 03 00 00	jne	0x2bec
    288e:	4c 8b 75 d0	movq	-0x30(%rbp), %r14
    2892:	48 8b 5d d8	movq	-0x28(%rbp), %rbx
    2896:	f6 85 58 ff ff ff 01	testb	$0x1, -0xa8(%rbp)
    289d:	75 15	jne	0x28b4
    289f:	f6 85 78 ff ff ff 01	testb	$0x1, -0x88(%rbp)
    28a6:	75 21	jne	0x28c9
    28a8:	f6 45 b8 01	testb	$0x1, -0x48(%rbp)
    28ac:	0f 84 e4 fd ff ff	je	0x2696
    28b2:	eb 28	jmp	0x28dc
    28b4:	48 8b bd 68 ff ff ff	movq	-0x98(%rbp), %rdi
    28bb:	e8 02 61 02 00	callq	0x289c2 ## symbol stub for: __ZdlPv
    28c0:	f6 85 78 ff ff ff 01	testb	$0x1, -0x88(%rbp)
    28c7:	74 df	je	0x28a8
    28c9:	48 8b 7d 88	movq	-0x78(%rbp), %rdi
    28cd:	e8 f0 60 02 00	callq	0x289c2 ## symbol stub for: __ZdlPv
    28d2:	f6 45 b8 01	testb	$0x1, -0x48(%rbp)
    28d6:	0f 84 ba fd ff ff	je	0x2696
    28dc:	48 8b 7d c8	movq	-0x38(%rbp), %rdi
    28e0:	e8 dd 60 02 00	callq	0x289c2 ## symbol stub for: __ZdlPv
    28e5:	e9 ac fd ff ff	jmp	0x2696
    28ea:	bf 38 00 00 00	movl	$0x38, %edi
    28ef:	e8 ec 60 02 00	callq	0x289e0 ## symbol stub for: ___cxa_allocate_exception
    28f4:	49 89 c7	movq	%rax, %r15
    28f7:	48 89 c7	movq	%rax, %rdi
    28fa:	4c 89 f6	movq	%r14, %rsi
    28fd:	e8 fe 27 00 00	callq	__ZN4Napi5Error3NewEP10napi_env__ ## Napi::Error::New(napi_env__*)
    2902:	e9 88 00 00 00	jmp	0x298f
    2907:	bf 38 00 00 00	movl	$0x38, %edi
    290c:	e8 cf 60 02 00	callq	0x289e0 ## symbol stub for: ___cxa_allocate_exception
    2911:	49 89 c7	movq	%rax, %r15
    2914:	48 89 c7	movq	%rax, %rdi
    2917:	4c 89 f6	movq	%r14, %rsi
    291a:	e8 e1 27 00 00	callq	__ZN4Napi5Error3NewEP10napi_env__ ## Napi::Error::New(napi_env__*)
    291f:	eb 6e	jmp	0x298f
    2921:	bf 38 00 00 00	movl	$0x38, %edi
    2926:	e8 b5 60 02 00	callq	0x289e0 ## symbol stub for: ___cxa_allocate_exception
    292b:	49 89 c6	movq	%rax, %r14
    292e:	48 8b 75 d0	movq	-0x30(%rbp), %rsi
    2932:	48 89 c7	movq	%rax, %rdi
    2935:	e8 c6 27 00 00	callq	__ZN4Napi5Error3NewEP10napi_env__ ## Napi::Error::New(napi_env__*)
    293a:	e9 e6 00 00 00	jmp	0x2a25
    293f:	bf 38 00 00 00	movl	$0x38, %edi
    2944:	e8 97 60 02 00	callq	0x289e0 ## symbol stub for: ___cxa_allocate_exception
    2949:	49 89 c7	movq	%rax, %r15
    294c:	48 89 c7	movq	%rax, %rdi
    294f:	4c 89 f6	movq	%r14, %rsi
    2952:	e8 a9 27 00 00	callq	__ZN4Napi5Error3NewEP10napi_env__ ## Napi::Error::New(napi_env__*)
    2957:	eb 36	jmp	0x298f
    2959:	bf 38 00 00 00	movl	$0x38, %edi
    295e:	e8 7d 60 02 00	callq	0x289e0 ## symbol stub for: ___cxa_allocate_exception
    2963:	49 89 c6	movq	%rax, %r14
    2966:	48 8b 75 d0	movq	-0x30(%rbp), %rsi
    296a:	48 89 c7	movq	%rax, %rdi
    296d:	e8 8e 27 00 00	callq	__ZN4Napi5Error3NewEP10napi_env__ ## Napi::Error::New(napi_env__*)
    2972:	e9 ae 00 00 00	jmp	0x2a25
    2977:	bf 38 00 00 00	movl	$0x38, %edi
    297c:	e8 5f 60 02 00	callq	0x289e0 ## symbol stub for: ___cxa_allocate_exception
    2981:	49 89 c7	movq	%rax, %r15
    2984:	48 89 c7	movq	%rax, %rdi
    2987:	4c 89 f6	movq	%r14, %rsi
    298a:	e8 71 27 00 00	callq	__ZN4Napi5Error3NewEP10napi_env__ ## Napi::Error::New(napi_env__*)
    298f:	48 8b 35 b2 96 02 00	movq	0x296b2(%rip), %rsi ## literal pool symbol address: __ZTIN4Napi5ErrorE
    2996:	48 8b 15 6b 96 02 00	movq	0x2966b(%rip), %rdx
    299d:	4c 89 ff	movq	%r15, %rdi
    29a0:	e8 59 60 02 00	callq	0x289fe ## symbol stub for: ___cxa_throw
    29a5:	bf 38 00 00 00	movl	$0x38, %edi
    29aa:	e8 31 60 02 00	callq	0x289e0 ## symbol stub for: ___cxa_allocate_exception
    29af:	49 89 c6	movq	%rax, %r14
    29b2:	48 89 c7	movq	%rax, %rdi
    29b5:	4c 89 fe	movq	%r15, %rsi
    29b8:	e8 43 27 00 00	callq	__ZN4Napi5Error3NewEP10napi_env__ ## Napi::Error::New(napi_env__*)
    29bd:	eb 66	jmp	0x2a25
    29bf:	bf 38 00 00 00	movl	$0x38, %edi
    29c4:	e8 17 60 02 00	callq	0x289e0 ## symbol stub for: ___cxa_allocate_exception
    29c9:	49 89 c6	movq	%rax, %r14
    29cc:	48 89 c7	movq	%rax, %rdi
    29cf:	4c 89 fe	movq	%r15, %rsi
    29d2:	e8 29 27 00 00	callq	__ZN4Napi5Error3NewEP10napi_env__ ## Napi::Error::New(napi_env__*)
    29d7:	eb 4c	jmp	0x2a25
    29d9:	bf 38 00 00 00	movl	$0x38, %edi
    29de:	e8 fd 5f 02 00	callq	0x289e0 ## symbol stub for: ___cxa_allocate_exception
    29e3:	49 89 c6	movq	%rax, %r14
    29e6:	48 89 c7	movq	%rax, %rdi
    29e9:	4c 89 fe	movq	%r15, %rsi
    29ec:	e8 0f 27 00 00	callq	__ZN4Napi5Error3NewEP10napi_env__ ## Napi::Error::New(napi_env__*)
    29f1:	eb 32	jmp	0x2a25
    29f3:	bf 38 00 00 00	movl	$0x38, %edi
    29f8:	e8 e3 5f 02 00	callq	0x289e0 ## symbol stub for: ___cxa_allocate_exception
    29fd:	49 89 c6	movq	%rax, %r14
    2a00:	48 89 c7	movq	%rax, %rdi
    2a03:	4c 89 fe	movq	%r15, %rsi
    2a06:	e8 f5 26 00 00	callq	__ZN4Napi5Error3NewEP10napi_env__ ## Napi::Error::New(napi_env__*)
    2a0b:	eb 18	jmp	0x2a25
    2a0d:	bf 38 00 00 00	movl	$0x38, %edi
    2a12:	e8 c9 5f 02 00	callq	0x289e0 ## symbol stub for: ___cxa_allocate_exception
    2a17:	49 89 c6	movq	%rax, %r14
    2a1a:	48 89 c7	movq	%rax, %rdi
    2a1d:	4c 89 fe	movq	%r15, %rsi
    2a20:	e8 db 26 00 00	callq	__ZN4Napi5Error3NewEP10napi_env__ ## Napi::Error::New(napi_env__*)
    2a25:	48 8b 35 1c 96 02 00	movq	0x2961c(%rip), %rsi ## literal pool symbol address: __ZTIN4Napi5ErrorE
    2a2c:	48 8b 15 d5 95 02 00	movq	0x295d5(%rip), %rdx
    2a33:	4c 89 f7	movq	%r14, %rdi
    2a36:	e8 c3 5f 02 00	callq	0x289fe ## symbol stub for: ___cxa_throw
    2a3b:	bf 38 00 00 00	movl	$0x38, %edi
    2a40:	e8 9b 5f 02 00	callq	0x289e0 ## symbol stub for: ___cxa_allocate_exception
    2a45:	49 89 c4	movq	%rax, %r12
    2a48:	48 89 c7	movq	%rax, %rdi
    2a4b:	4c 89 f6	movq	%r14, %rsi
    2a4e:	e8 ad 26 00 00	callq	__ZN4Napi5Error3NewEP10napi_env__ ## Napi::Error::New(napi_env__*)
    2a53:	48 8b 35 ee 95 02 00	movq	0x295ee(%rip), %rsi ## literal pool symbol address: __ZTIN4Napi5ErrorE
    2a5a:	48 8b 15 a7 95 02 00	movq	0x295a7(%rip), %rdx
    2a61:	4c 89 e7	movq	%r12, %rdi
    2a64:	e8 95 5f 02 00	callq	0x289fe ## symbol stub for: ___cxa_throw
    2a69:	e9 ad 01 00 00	jmp	0x2c1b
    2a6e:	bf 38 00 00 00	movl	$0x38, %edi
    2a73:	e8 68 5f 02 00	callq	0x289e0 ## symbol stub for: ___cxa_allocate_exception
    2a78:	49 89 c4	movq	%rax, %r12
    2a7b:	48 8b 75 d0	movq	-0x30(%rbp), %rsi
    2a7f:	48 89 c7	movq	%rax, %rdi
    2a82:	e8 79 26 00 00	callq	__ZN4Napi5Error3NewEP10napi_env__ ## Napi::Error::New(napi_env__*)
    2a87:	48 8b 35 ba 95 02 00	movq	0x295ba(%rip), %rsi ## literal pool symbol address: __ZTIN4Napi5ErrorE
    2a8e:	48 8b 15 73 95 02 00	movq	0x29573(%rip), %rdx
    2a95:	4c 89 e7	movq	%r12, %rdi
    2a98:	e8 61 5f 02 00	callq	0x289fe ## symbol stub for: ___cxa_throw
    2a9d:	e9 79 01 00 00	jmp	0x2c1b
    2aa2:	bf 38 00 00 00	movl	$0x38, %edi
    2aa7:	e8 34 5f 02 00	callq	0x289e0 ## symbol stub for: ___cxa_allocate_exception
    2aac:	49 89 c4	movq	%rax, %r12
    2aaf:	48 89 c7	movq	%rax, %rdi
    2ab2:	4c 89 f6	movq	%r14, %rsi
    2ab5:	e8 46 26 00 00	callq	__ZN4Napi5Error3NewEP10napi_env__ ## Napi::Error::New(napi_env__*)
    2aba:	48 8b 35 87 95 02 00	movq	0x29587(%rip), %rsi ## literal pool symbol address: __ZTIN4Napi5ErrorE
    2ac1:	48 8b 15 40 95 02 00	movq	0x29540(%rip), %rdx
    2ac8:	4c 89 e7	movq	%r12, %rdi
    2acb:	e8 2e 5f 02 00	callq	0x289fe ## symbol stub for: ___cxa_throw
    2ad0:	e9 46 01 00 00	jmp	0x2c1b
    2ad5:	bf 38 00 00 00	movl	$0x38, %edi
    2ada:	e8 01 5f 02 00	callq	0x289e0 ## symbol stub for: ___cxa_allocate_exception
    2adf:	49 89 c4	movq	%rax, %r12
    2ae2:	48 8b 75 d0	movq	-0x30(%rbp), %rsi
    2ae6:	48 89 c7	movq	%rax, %rdi
    2ae9:	e8 12 26 00 00	callq	__ZN4Napi5Error3NewEP10napi_env__ ## Napi::Error::New(napi_env__*)
    2aee:	48 8b 35 53 95 02 00	movq	0x29553(%rip), %rsi ## literal pool symbol address: __ZTIN4Napi5ErrorE
    2af5:	48 8b 15 0c 95 02 00	movq	0x2950c(%rip), %rdx
    2afc:	4c 89 e7	movq	%r12, %rdi
    2aff:	e8 fa 5e 02 00	callq	0x289fe ## symbol stub for: ___cxa_throw
    2b04:	e9 12 01 00 00	jmp	0x2c1b
    2b09:	bf 38 00 00 00	movl	$0x38, %edi
    2b0e:	e8 cd 5e 02 00	callq	0x289e0 ## symbol stub for: ___cxa_allocate_exception
    2b13:	49 89 c4	movq	%rax, %r12
    2b16:	48 89 c7	movq	%rax, %rdi
    2b19:	4c 89 f6	movq	%r14, %rsi
    2b1c:	e8 df 25 00 00	callq	__ZN4Napi5Error3NewEP10napi_env__ ## Napi::Error::New(napi_env__*)
    2b21:	48 8b 35 20 95 02 00	movq	0x29520(%rip), %rsi ## literal pool symbol address: __ZTIN4Napi5ErrorE
    2b28:	48 8b 15 d9 94 02 00	movq	0x294d9(%rip), %rdx
    2b2f:	4c 89 e7	movq	%r12, %rdi
    2b32:	e8 c7 5e 02 00	callq	0x289fe ## symbol stub for: ___cxa_throw
    2b37:	e9 df 00 00 00	jmp	0x2c1b
    2b3c:	bf 38 00 00 00	movl	$0x38, %edi
    2b41:	e8 9a 5e 02 00	callq	0x289e0 ## symbol stub for: ___cxa_allocate_exception
    2b46:	49 89 c6	movq	%rax, %r14
    2b49:	48 89 c7	movq	%rax, %rdi
    2b4c:	4c 89 fe	movq	%r15, %rsi
    2b4f:	e8 ac 25 00 00	callq	__ZN4Napi5Error3NewEP10napi_env__ ## Napi::Error::New(napi_env__*)
    2b54:	48 8b 35 ed 94 02 00	movq	0x294ed(%rip), %rsi ## literal pool symbol address: __ZTIN4Napi5ErrorE
    2b5b:	48 8b 15 a6 94 02 00	movq	0x294a6(%rip), %rdx
    2b62:	4c 89 f7	movq	%r14, %rdi
    2b65:	e8 94 5e 02 00	callq	0x289fe ## symbol stub for: ___cxa_throw
    2b6a:	e9 ac 00 00 00	jmp	0x2c1b
    2b6f:	bf 38 00 00 00	movl	$0x38, %edi
    2b74:	e8 67 5e 02 00	callq	0x289e0 ## symbol stub for: ___cxa_allocate_exception
    2b79:	49 89 c6	movq	%rax, %r14
    2b7c:	48 89 c7	movq	%rax, %rdi
    2b7f:	4c 89 fe	movq	%r15, %rsi
    2b82:	e8 79 25 00 00	callq	__ZN4Napi5Error3NewEP10napi_env__ ## Napi::Error::New(napi_env__*)
    2b87:	48 8b 35 ba 94 02 00	movq	0x294ba(%rip), %rsi ## literal pool symbol address: __ZTIN4Napi5ErrorE
    2b8e:	48 8b 15 73 94 02 00	movq	0x29473(%rip), %rdx
    2b95:	4c 89 f7	movq	%r14, %rdi
    2b98:	e8 61 5e 02 00	callq	0x289fe ## symbol stub for: ___cxa_throw
    2b9d:	eb 7c	jmp	0x2c1b
    2b9f:	bf 38 00 00 00	movl	$0x38, %edi
    2ba4:	e8 37 5e 02 00	callq	0x289e0 ## symbol stub for: ___cxa_allocate_exception
    2ba9:	49 89 c6	movq	%rax, %r14
    2bac:	48 89 c7	movq	%rax, %rdi
    2baf:	4c 89 fe	movq	%r15, %rsi
    2bb2:	e8 49 25 00 00	callq	__ZN4Napi5Error3NewEP10napi_env__ ## Napi::Error::New(napi_env__*)
    2bb7:	e9 69 fe ff ff	jmp	0x2a25
    2bbc:	bf 38 00 00 00	movl	$0x38, %edi
    2bc1:	e8 1a 5e 02 00	callq	0x289e0 ## symbol stub for: ___cxa_allocate_exception
    2bc6:	49 89 c4	movq	%rax, %r12
    2bc9:	48 89 c7	movq	%rax, %rdi
    2bcc:	4c 89 f6	movq	%r14, %rsi
    2bcf:	e8 2c 25 00 00	callq	__ZN4Napi5Error3NewEP10napi_env__ ## Napi::Error::New(napi_env__*)
    2bd4:	48 8b 35 6d 94 02 00	movq	0x2946d(%rip), %rsi ## literal pool symbol address: __ZTIN4Napi5ErrorE
    2bdb:	48 8b 15 26 94 02 00	movq	0x29426(%rip), %rdx
    2be2:	4c 89 e7	movq	%r12, %rdi
    2be5:	e8 14 5e 02 00	callq	0x289fe ## symbol stub for: ___cxa_throw
    2bea:	eb 2f	jmp	0x2c1b
    2bec:	bf 38 00 00 00	movl	$0x38, %edi
    2bf1:	e8 ea 5d 02 00	callq	0x289e0 ## symbol stub for: ___cxa_allocate_exception
    2bf6:	49 89 c4	movq	%rax, %r12
    2bf9:	48 8b 75 d0	movq	-0x30(%rbp), %rsi
    2bfd:	48 89 c7	movq	%rax, %rdi
    2c00:	e8 fb 24 00 00	callq	__ZN4Napi5Error3NewEP10napi_env__ ## Napi::Error::New(napi_env__*)
    2c05:	48 8b 35 3c 94 02 00	movq	0x2943c(%rip), %rsi ## literal pool symbol address: __ZTIN4Napi5ErrorE
    2c0c:	48 8b 15 f5 93 02 00	movq	0x293f5(%rip), %rdx
    2c13:	4c 89 e7	movq	%r12, %rdi
    2c16:	e8 e3 5d 02 00	callq	0x289fe ## symbol stub for: ___cxa_throw
    2c1b:	0f 0b	ud2
    2c1d:	eb 43	jmp	0x2c62
    2c1f:	eb 41	jmp	0x2c62
    2c21:	eb 5f	jmp	0x2c82
    2c23:	48 89 c3	movq	%rax, %rbx
    2c26:	4c 89 f7	movq	%r14, %rdi
    2c29:	e8 ca 5d 02 00	callq	0x289f8 ## symbol stub for: ___cxa_free_exception
    2c2e:	f6 85 78 ff ff ff 01	testb	$0x1, -0x88(%rbp)
    2c35:	0f 84 67 03 00 00	je	0x2fa2
    2c3b:	e9 9d 03 00 00	jmp	0x2fdd
    2c40:	48 89 c3	movq	%rax, %rbx
    2c43:	4c 89 f7	movq	%r14, %rdi
    2c46:	e8 ad 5d 02 00	callq	0x289f8 ## symbol stub for: ___cxa_free_exception
    2c4b:	f6 45 b8 01	testb	$0x1, -0x48(%rbp)
    2c4f:	0f 84 53 03 00 00	je	0x2fa8
    2c55:	e9 9d 03 00 00	jmp	0x2ff7
    2c5a:	eb 06	jmp	0x2c62
    2c5c:	eb 04	jmp	0x2c62
    2c5e:	eb 02	jmp	0x2c62
    2c60:	eb 00	jmp	0x2c62
    2c62:	49 89 d7	movq	%rdx, %r15
    2c65:	48 89 c3	movq	%rax, %rbx
    2c68:	4c 89 e7	movq	%r12, %rdi
    2c6b:	e8 88 5d 02 00	callq	0x289f8 ## symbol stub for: ___cxa_free_exception
    2c70:	eb 3f	jmp	0x2cb1
    2c72:	eb 0e	jmp	0x2c82
    2c74:	eb 0c	jmp	0x2c82
    2c76:	eb 0a	jmp	0x2c82
    2c78:	eb 08	jmp	0x2c82
    2c7a:	eb 06	jmp	0x2c82
    2c7c:	eb 10	jmp	0x2c8e
    2c7e:	eb 02	jmp	0x2c82
    2c80:	eb 0c	jmp	0x2c8e
    2c82:	48 89 c3	movq	%rax, %rbx
    2c85:	4c 89 f7	movq	%r14, %rdi
    2c88:	eb 0a	jmp	0x2c94
    2c8a:	eb 02	jmp	0x2c8e
    2c8c:	eb 00	jmp	0x2c8e
    2c8e:	48 89 c3	movq	%rax, %rbx
    2c91:	4c 89 ff	movq	%r15, %rdi
    2c94:	e8 5f 5d 02 00	callq	0x289f8 ## symbol stub for: ___cxa_free_exception
    2c99:	48 89 df	movq	%rbx, %rdi
    2c9c:	e8 31 5c 02 00	callq	0x288d2 ## symbol stub for: __Unwind_Resume
    2ca1:	0f 0b	ud2
    2ca3:	eb 06	jmp	0x2cab
    2ca5:	eb 04	jmp	0x2cab
    2ca7:	eb 02	jmp	0x2cab
    2ca9:	eb 00	jmp	0x2cab
    2cab:	49 89 d7	movq	%rdx, %r15
    2cae:	48 89 c3	movq	%rax, %rbx
    2cb1:	48 89 df	movq	%rbx, %rdi
    2cb4:	e8 33 5d 02 00	callq	0x289ec ## symbol stub for: ___cxa_begin_catch
    2cb9:	41 83 ff 02	cmpl	$0x2, %r15d
    2cbd:	0f 85 97 00 00 00	jne	0x2d5a
    2cc3:	48 89 c3	movq	%rax, %rbx
    2cc6:	f2 0f 10 05 ea 7a 02 00	movsd	0x27aea(%rip), %xmm0
    2cce:	48 8d 75 a8	leaq	-0x58(%rbp), %rsi
    2cd2:	4c 89 f7	movq	%r14, %rdi
    2cd5:	e8 f6 5d 02 00	callq	0x28ad0 ## symbol stub for: _napi_create_double
    2cda:	85 c0	testl	%eax, %eax
    2cdc:	0f 85 16 01 00 00	jne	0x2df8
    2ce2:	48 8b 4d a8	movq	-0x58(%rbp), %rcx
    2ce6:	48 8b 7d d0	movq	-0x30(%rbp), %rdi
    2cea:	48 8b 75 d8	movq	-0x28(%rbp), %rsi
    2cee:	48 8d 15 31 80 02 00	leaq	0x28031(%rip), %rdx ## literal pool for: "result"
    2cf5:	e8 84 5e 02 00	callq	0x28b7e ## symbol stub for: _napi_set_named_property
    2cfa:	85 c0	testl	%eax, %eax
    2cfc:	0f 85 29 01 00 00	jne	0x2e2b
    2d02:	48 8b 03	movq	(%rbx), %rax
    2d05:	48 89 df	movq	%rbx, %rdi
    2d08:	ff 50 10	callq	*0x10(%rax)
    2d0b:	48 89 c3	movq	%rax, %rbx
    2d0e:	48 89 c7	movq	%rax, %rdi
    2d11:	e8 bc 5e 02 00	callq	0x28bd2 ## symbol stub for: _strlen
    2d16:	48 8d 4d 90	leaq	-0x70(%rbp), %rcx
    2d1a:	4c 89 f7	movq	%r14, %rdi
    2d1d:	48 89 de	movq	%rbx, %rsi
    2d20:	48 89 c2	movq	%rax, %rdx
    2d23:	e8 cc 5d 02 00	callq	0x28af4 ## symbol stub for: _napi_create_string_utf8
    2d28:	85 c0	testl	%eax, %eax
    2d2a:	0f 85 2f 01 00 00	jne	0x2e5f
    2d30:	48 8b 45 90	movq	-0x70(%rbp), %rax
    2d34:	4c 89 75 a8	movq	%r14, -0x58(%rbp)
    2d38:	48 89 45 b0	movq	%rax, -0x50(%rbp)
    2d3c:	48 8d 35 ea 7f 02 00	leaq	0x27fea(%rip), %rsi ## literal pool for: "error_message"
    2d43:	48 8d 7d d0	leaq	-0x30(%rbp), %rdi
    2d47:	48 8d 55 a8	leaq	-0x58(%rbp), %rdx
    2d4b:	e8 c0 02 00 00	callq	__ZN4Napi6Object3SetINS_6StringEEEvPKcRKT_ ## void Napi::Object::Set<Napi::String>(char const*, Napi::String const&)
    2d50:	e8 9d 5c 02 00	callq	0x289f2 ## symbol stub for: ___cxa_end_catch
    2d55:	e9 34 fb ff ff	jmp	0x288e
    2d5a:	48 8d bd 70 ff ff ff	leaq	-0x90(%rbp), %rdi
    2d61:	e8 4a 5c 02 00	callq	0x289b0 ## symbol stub for: __ZSt17current_exceptionv
    2d66:	f2 0f 10 05 42 7a 02 00	movsd	0x27a42(%rip), %xmm0
    2d6e:	48 8d 75 a8	leaq	-0x58(%rbp), %rsi
    2d72:	4c 89 f7	movq	%r14, %rdi
    2d75:	e8 56 5d 02 00	callq	0x28ad0 ## symbol stub for: _napi_create_double
    2d7a:	85 c0	testl	%eax, %eax
    2d7c:	0f 85 10 01 00 00	jne	0x2e92
    2d82:	48 8b 4d a8	movq	-0x58(%rbp), %rcx
    2d86:	48 8b 7d d0	movq	-0x30(%rbp), %rdi
    2d8a:	48 8b 75 d8	movq	-0x28(%rbp), %rsi
    2d8e:	48 8d 15 91 7f 02 00	leaq	0x27f91(%rip), %rdx ## literal pool for: "result"
    2d95:	e8 e4 5d 02 00	callq	0x28b7e ## symbol stub for: _napi_set_named_property
    2d9a:	85 c0	testl	%eax, %eax
    2d9c:	0f 85 23 01 00 00	jne	0x2ec5
    2da2:	48 8d 35 ee 7f 02 00	leaq	0x27fee(%rip), %rsi ## literal pool for: "Unknown exception"
    2da9:	48 8d 4d 90	leaq	-0x70(%rbp), %rcx
    2dad:	ba 11 00 00 00	movl	$0x11, %edx
    2db2:	4c 89 f7	movq	%r14, %rdi
    2db5:	e8 3a 5d 02 00	callq	0x28af4 ## symbol stub for: _napi_create_string_utf8
    2dba:	85 c0	testl	%eax, %eax
    2dbc:	0f 85 37 01 00 00	jne	0x2ef9
    2dc2:	48 8b 45 90	movq	-0x70(%rbp), %rax
    2dc6:	4c 89 75 a8	movq	%r14, -0x58(%rbp)
    2dca:	48 89 45 b0	movq	%rax, -0x50(%rbp)
    2dce:	48 8d 35 58 7f 02 00	leaq	0x27f58(%rip), %rsi ## literal pool for: "error_message"
    2dd5:	48 8d 7d d0	leaq	-0x30(%rbp), %rdi
    2dd9:	48 8d 55 a8	leaq	-0x58(%rbp), %rdx
    2ddd:	e8 2e 02 00 00	callq	__ZN4Napi6Object3SetINS_6StringEEEvPKcRKT_ ## void Napi::Object::Set<Napi::String>(char const*, Napi::String const&)
    2de2:	48 8d bd 70 ff ff ff	leaq	-0x90(%rbp), %rdi
    2de9:	e8 0e 5b 02 00	callq	0x288fc ## symbol stub for: __ZNSt13exception_ptrD1Ev
    2dee:	e8 ff 5b 02 00	callq	0x289f2 ## symbol stub for: ___cxa_end_catch
    2df3:	e9 96 fa ff ff	jmp	0x288e
    2df8:	bf 38 00 00 00	movl	$0x38, %edi
    2dfd:	e8 de 5b 02 00	callq	0x289e0 ## symbol stub for: ___cxa_allocate_exception
    2e02:	49 89 c7	movq	%rax, %r15
    2e05:	48 89 c7	movq	%rax, %rdi
    2e08:	4c 89 f6	movq	%r14, %rsi
    2e0b:	e8 f0 22 00 00	callq	__ZN4Napi5Error3NewEP10napi_env__ ## Napi::Error::New(napi_env__*)
    2e10:	48 8b 35 31 92 02 00	movq	0x29231(%rip), %rsi ## literal pool symbol address: __ZTIN4Napi5ErrorE
    2e17:	48 8b 15 ea 91 02 00	movq	0x291ea(%rip), %rdx
    2e1e:	4c 89 ff	movq	%r15, %rdi
    2e21:	e8 d8 5b 02 00	callq	0x289fe ## symbol stub for: ___cxa_throw
    2e26:	e9 f0 fd ff ff	jmp	0x2c1b
    2e2b:	bf 38 00 00 00	movl	$0x38, %edi
    2e30:	e8 ab 5b 02 00	callq	0x289e0 ## symbol stub for: ___cxa_allocate_exception
    2e35:	49 89 c6	movq	%rax, %r14
    2e38:	48 8b 75 d0	movq	-0x30(%rbp), %rsi
    2e3c:	48 89 c7	movq	%rax, %rdi
    2e3f:	e8 bc 22 00 00	callq	__ZN4Napi5Error3NewEP10napi_env__ ## Napi::Error::New(napi_env__*)
    2e44:	48 8b 35 fd 91 02 00	movq	0x291fd(%rip), %rsi ## literal pool symbol address: __ZTIN4Napi5ErrorE
    2e4b:	48 8b 15 b6 91 02 00	movq	0x291b6(%rip), %rdx
    2e52:	4c 89 f7	movq	%r14, %rdi
    2e55:	e8 a4 5b 02 00	callq	0x289fe ## symbol stub for: ___cxa_throw
    2e5a:	e9 bc fd ff ff	jmp	0x2c1b
    2e5f:	bf 38 00 00 00	movl	$0x38, %edi
    2e64:	e8 77 5b 02 00	callq	0x289e0 ## symbol stub for: ___cxa_allocate_exception
    2e69:	49 89 c7	movq	%rax, %r15
    2e6c:	48 89 c7	movq	%rax, %rdi
    2e6f:	4c 89 f6	movq	%r14, %rsi
    2e72:	e8 89 22 00 00	callq	__ZN4Napi5Error3NewEP10napi_env__ ## Napi::Error::New(napi_env__*)
    2e77:	48 8b 35 ca 91 02 00	movq	0x291ca(%rip), %rsi ## literal pool symbol address: __ZTIN4Napi5ErrorE
    2e7e:	48 8b 15 83 91 02 00	movq	0x29183(%rip), %rdx
    2e85:	4c 89 ff	movq	%r15, %rdi
    2e88:	e8 71 5b 02 00	callq	0x289fe ## symbol stub for: ___cxa_throw
    2e8d:	e9 89 fd ff ff	jmp	0x2c1b
    2e92:	bf 38 00 00 00	movl	$0x38, %edi
    2e97:	e8 44 5b 02 00	callq	0x289e0 ## symbol stub for: ___cxa_allocate_exception
    2e9c:	49 89 c7	movq	%rax, %r15
    2e9f:	48 89 c7	movq	%rax, %rdi
    2ea2:	4c 89 f6	movq	%r14, %rsi
    2ea5:	e8 56 22 00 00	callq	__ZN4Napi5Error3NewEP10napi_env__ ## Napi::Error::New(napi_env__*)
    2eaa:	48 8b 35 97 91 02 00	movq	0x29197(%rip), %rsi ## literal pool symbol address: __ZTIN4Napi5ErrorE
    2eb1:	48 8b 15 50 91 02 00	movq	0x29150(%rip), %rdx
    2eb8:	4c 89 ff	movq	%r15, %rdi
    2ebb:	e8 3e 5b 02 00	callq	0x289fe ## symbol stub for: ___cxa_throw
    2ec0:	e9 56 fd ff ff	jmp	0x2c1b
    2ec5:	bf 38 00 00 00	movl	$0x38, %edi
    2eca:	e8 11 5b 02 00	callq	0x289e0 ## symbol stub for: ___cxa_allocate_exception
    2ecf:	49 89 c6	movq	%rax, %r14
    2ed2:	48 8b 75 d0	movq	-0x30(%rbp), %rsi
    2ed6:	48 89 c7	movq	%rax, %rdi
    2ed9:	e8 22 22 00 00	callq	__ZN4Napi5Error3NewEP10napi_env__ ## Napi::Error::New(napi_env__*)
    2ede:	48 8b 35 63 91 02 00	movq	0x29163(%rip), %rsi ## literal pool symbol address: __ZTIN4Napi5ErrorE
    2ee5:	48 8b 15 1c 91 02 00	movq	0x2911c(%rip), %rdx
    2eec:	4c 89 f7	movq	%r14, %rdi
    2eef:	e8 0a 5b 02 00	callq	0x289fe ## symbol stub for: ___cxa_throw
    2ef4:	e9 22 fd ff ff	jmp	0x2c1b
    2ef9:	bf 38 00 00 00	movl	$0x38, %edi
    2efe:	e8 dd 5a 02 00	callq	0x289e0 ## symbol stub for: ___cxa_allocate_exception
    2f03:	49 89 c7	movq	%rax, %r15
    2f06:	48 89 c7	movq	%rax, %rdi
    2f09:	4c 89 f6	movq	%r14, %rsi
    2f0c:	e8 ef 21 00 00	callq	__ZN4Napi5Error3NewEP10napi_env__ ## Napi::Error::New(napi_env__*)
    2f11:	48 8b 35 30 91 02 00	movq	0x29130(%rip), %rsi ## literal pool symbol address: __ZTIN4Napi5ErrorE
    2f18:	48 8b 15 e9 90 02 00	movq	0x290e9(%rip), %rdx
    2f1f:	4c 89 ff	movq	%r15, %rdi
    2f22:	e8 d7 5a 02 00	callq	0x289fe ## symbol stub for: ___cxa_throw
    2f27:	e9 ef fc ff ff	jmp	0x2c1b
    2f2c:	eb 0d	jmp	0x2f3b
    2f2e:	48 89 c3	movq	%rax, %rbx
    2f31:	4c 89 f7	movq	%r14, %rdi
    2f34:	e8 bf 5a 02 00	callq	0x289f8 ## symbol stub for: ___cxa_free_exception
    2f39:	eb 3a	jmp	0x2f75
    2f3b:	48 89 c3	movq	%rax, %rbx
    2f3e:	4c 89 ff	movq	%r15, %rdi
    2f41:	e8 b2 5a 02 00	callq	0x289f8 ## symbol stub for: ___cxa_free_exception
    2f46:	eb 2d	jmp	0x2f75
    2f48:	eb 0d	jmp	0x2f57
    2f4a:	48 89 c3	movq	%rax, %rbx
    2f4d:	4c 89 f7	movq	%r14, %rdi
    2f50:	e8 a3 5a 02 00	callq	0x289f8 ## symbol stub for: ___cxa_free_exception
    2f55:	eb 34	jmp	0x2f8b
    2f57:	48 89 c3	movq	%rax, %rbx
    2f5a:	4c 89 ff	movq	%r15, %rdi
    2f5d:	e8 96 5a 02 00	callq	0x289f8 ## symbol stub for: ___cxa_free_exception
    2f62:	eb 27	jmp	0x2f8b
    2f64:	48 89 c3	movq	%rax, %rbx
    2f67:	eb 27	jmp	0x2f90
    2f69:	48 89 c3	movq	%rax, %rbx
    2f6c:	eb 22	jmp	0x2f90
    2f6e:	eb 02	jmp	0x2f72
    2f70:	eb 16	jmp	0x2f88
    2f72:	48 89 c3	movq	%rax, %rbx
    2f75:	48 8d bd 70 ff ff ff	leaq	-0x90(%rbp), %rdi
    2f7c:	e8 7b 59 02 00	callq	0x288fc ## symbol stub for: __ZNSt13exception_ptrD1Ev
    2f81:	e8 6c 5a 02 00	callq	0x289f2 ## symbol stub for: ___cxa_end_catch
    2f86:	eb 08	jmp	0x2f90
    2f88:	48 89 c3	movq	%rax, %rbx
    2f8b:	e8 62 5a 02 00	callq	0x289f2 ## symbol stub for: ___cxa_end_catch
    2f90:	f6 85 58 ff ff ff 01	testb	$0x1, -0xa8(%rbp)
    2f97:	75 19	jne	0x2fb2
    2f99:	f6 85 78 ff ff ff 01	testb	$0x1, -0x88(%rbp)
    2fa0:	75 3b	jne	0x2fdd
    2fa2:	f6 45 b8 01	testb	$0x1, -0x48(%rbp)
    2fa6:	75 4f	jne	0x2ff7
    2fa8:	48 89 df	movq	%rbx, %rdi
    2fab:	e8 22 59 02 00	callq	0x288d2 ## symbol stub for: __Unwind_Resume
    2fb0:	0f 0b	ud2
    2fb2:	48 8b bd 68 ff ff ff	movq	-0x98(%rbp), %rdi
    2fb9:	e8 04 5a 02 00	callq	0x289c2 ## symbol stub for: __ZdlPv
    2fbe:	f6 85 78 ff ff ff 01	testb	$0x1, -0x88(%rbp)
    2fc5:	74 db	je	0x2fa2
    2fc7:	eb 14	jmp	0x2fdd
    2fc9:	48 89 c7	movq	%rax, %rdi
    2fcc:	e8 ff f3 ff ff	callq	___clang_call_terminate
    2fd1:	48 89 c3	movq	%rax, %rbx
    2fd4:	f6 85 78 ff ff ff 01	testb	$0x1, -0x88(%rbp)
    2fdb:	74 c5	je	0x2fa2
    2fdd:	48 8b 7d 88	movq	-0x78(%rbp), %rdi
    2fe1:	e8 dc 59 02 00	callq	0x289c2 ## symbol stub for: __ZdlPv
    2fe6:	f6 45 b8 01	testb	$0x1, -0x48(%rbp)
    2fea:	74 bc	je	0x2fa8
    2fec:	eb 09	jmp	0x2ff7
    2fee:	48 89 c3	movq	%rax, %rbx
    2ff1:	f6 45 b8 01	testb	$0x1, -0x48(%rbp)
    2ff5:	74 b1	je	0x2fa8
    2ff7:	48 8b 7d c8	movq	-0x38(%rbp), %rdi
    2ffb:	e8 c2 59 02 00	callq	0x289c2 ## symbol stub for: __ZdlPv
    3000:	48 89 df	movq	%rbx, %rdi
    3003:	e8 ca 58 02 00	callq	0x288d2 ## symbol stub for: __Unwind_Resume
    3008:	0f 0b	ud2
    300a:	66 0f 1f 44 00 00	nopw	(%rax,%rax)
__ZN4Napi6Object3SetINS_6StringEEEvPKcRKT_:
    3010:	55	pushq	%rbp
    3011:	48 89 e5	movq	%rsp, %rbp
    3014:	41 57	pushq	%r15
    3016:	41 56	pushq	%r14
    3018:	41 55	pushq	%r13
    301a:	41 54	pushq	%r12
    301c:	53	pushq	%rbx
    301d:	48 83 ec 18	subq	$0x18, %rsp
    3021:	49 89 f6	movq	%rsi, %r14
    3024:	49 89 ff	movq	%rdi, %r15
    3027:	48 8b 1f	movq	(%rdi), %rbx
    302a:	4c 8b 67 08	movq	0x8(%rdi), %r12
    302e:	4c 8d 6d c0	leaq	-0x40(%rbp), %r13
    3032:	4c 89 ef	movq	%r13, %rdi
    3035:	48 89 d6	movq	%rdx, %rsi
    3038:	e8 a3 00 00 00	callq	__ZNK4Napi6String9Utf8ValueEv ## Napi::String::Utf8Value() const
    303d:	48 89 df	movq	%rbx, %rdi
    3040:	4c 89 ee	movq	%r13, %rsi
    3043:	e8 68 24 00 00	callq	__ZN4Napi7details14vf_utf8_string4FromEP10napi_env__RKNSt3__112basic_stringIcNS4_11char_traitsIcEENS4_9allocatorIcEEEE ## Napi::details::vf_utf8_string::From(napi_env__*, std::__1::basic_string<char, std::__1::char_traits<char>, std::__1::allocator<char>> const&)
    3048:	49 89 d5	movq	%rdx, %r13
    304b:	f6 45 c0 01	testb	$0x1, -0x40(%rbp)
    304f:	74 09	je	0x305a
    3051:	48 8b 7d d0	movq	-0x30(%rbp), %rdi
    3055:	e8 68 59 02 00	callq	0x289c2 ## symbol stub for: __ZdlPv
    305a:	48 89 df	movq	%rbx, %rdi
    305d:	4c 89 e6	movq	%r12, %rsi
    3060:	4c 89 f2	movq	%r14, %rdx
    3063:	4c 89 e9	movq	%r13, %rcx
    3066:	e8 13 5b 02 00	callq	0x28b7e ## symbol stub for: _napi_set_named_property
    306b:	85 c0	testl	%eax, %eax
    306d:	75 0f	jne	0x307e
    306f:	48 83 c4 18	addq	$0x18, %rsp
    3073:	5b	popq	%rbx
    3074:	41 5c	popq	%r12
    3076:	41 5d	popq	%r13
    3078:	41 5e	popq	%r14
    307a:	41 5f	popq	%r15
    307c:	5d	popq	%rbp
    307d:	c3	retq
    307e:	bf 38 00 00 00	movl	$0x38, %edi
    3083:	e8 58 59 02 00	callq	0x289e0 ## symbol stub for: ___cxa_allocate_exception
    3088:	49 89 c6	movq	%rax, %r14
    308b:	49 8b 37	movq	(%r15), %rsi
    308e:	48 89 c7	movq	%rax, %rdi
    3091:	e8 6a 20 00 00	callq	__ZN4Napi5Error3NewEP10napi_env__ ## Napi::Error::New(napi_env__*)
    3096:	48 8b 35 ab 8f 02 00	movq	0x28fab(%rip), %rsi ## literal pool symbol address: __ZTIN4Napi5ErrorE
    309d:	48 8b 15 64 8f 02 00	movq	0x28f64(%rip), %rdx
    30a4:	4c 89 f7	movq	%r14, %rdi
    30a7:	e8 52 59 02 00	callq	0x289fe ## symbol stub for: ___cxa_throw
    30ac:	48 89 c3	movq	%rax, %rbx
    30af:	4c 89 f7	movq	%r14, %rdi
    30b2:	e8 41 59 02 00	callq	0x289f8 ## symbol stub for: ___cxa_free_exception
    30b7:	eb 12	jmp	0x30cb
    30b9:	48 89 c3	movq	%rax, %rbx
    30bc:	f6 45 c0 01	testb	$0x1, -0x40(%rbp)
    30c0:	74 09	je	0x30cb
    30c2:	48 8b 7d d0	movq	-0x30(%rbp), %rdi
    30c6:	e8 f7 58 02 00	callq	0x289c2 ## symbol stub for: __ZdlPv
    30cb:	48 89 df	movq	%rbx, %rdi
    30ce:	e8 ff 57 02 00	callq	0x288d2 ## symbol stub for: __Unwind_Resume
    30d3:	0f 0b	ud2
    30d5:	66 2e 0f 1f 84 00 00 00 00 00	nopw	%cs:(%rax,%rax)
    30df:	90	nop
__ZNK4Napi6String9Utf8ValueEv:
    30e0:	55	pushq	%rbp
    30e1:	48 89 e5	movq	%rsp, %rbp
    30e4:	41 57	pushq	%r15
    30e6:	41 56	pushq	%r14
    30e8:	53	pushq	%rbx
    30e9:	50	pushq	%rax
    30ea:	49 89 f6	movq	%rsi, %r14
    30ed:	48 89 fb	movq	%rdi, %rbx
    30f0:	48 8b 3e	movq	(%rsi), %rdi
    30f3:	48 8b 76 08	movq	0x8(%rsi), %rsi
    30f7:	4c 8d 45 e0	leaq	-0x20(%rbp), %r8
    30fb:	31 d2	xorl	%edx, %edx
    30fd:	31 c9	xorl	%ecx, %ecx
    30ff:	e8 50 5a 02 00	callq	0x28b54 ## symbol stub for: _napi_get_value_string_utf8
    3104:	85 c0	testl	%eax, %eax
    3106:	75 74	jne	0x317c
    3108:	48 c7 43 10 00 00 00 00	movq	$0x0, 0x10(%rbx)
    3110:	48 c7 43 08 00 00 00 00	movq	$0x0, 0x8(%rbx)
    3118:	48 c7 03 00 00 00 00	movq	$0x0, (%rbx)
    311f:	48 8b 75 e0	movq	-0x20(%rbp), %rsi
    3123:	48 ff c6	incq	%rsi
    3126:	48 89 df	movq	%rbx, %rdi
    3129:	e8 fe 57 02 00	callq	0x2892c ## symbol stub for: __ZNSt3__112basic_stringIcNS_11char_traitsIcEENS_9allocatorIcEEE7reserveEm
    312e:	48 8b 75 e0	movq	-0x20(%rbp), %rsi
    3132:	48 89 df	movq	%rbx, %rdi
    3135:	31 d2	xorl	%edx, %edx
    3137:	e8 ea 57 02 00	callq	0x28926 ## symbol stub for: __ZNSt3__112basic_stringIcNS_11char_traitsIcEENS_9allocatorIcEEE6resizeEmc
    313c:	49 8b 3e	movq	(%r14), %rdi
    313f:	48 8b 03	movq	(%rbx), %rax
    3142:	48 83 e0 fe	andq	$-0x2, %rax
    3146:	48 ff c8	decq	%rax
    3149:	f6 03 01	testb	$0x1, (%rbx)
    314c:	48 8d 53 01	leaq	0x1(%rbx), %rdx
    3150:	48 0f 45 53 10	cmovneq	0x10(%rbx), %rdx
    3155:	49 8b 76 08	movq	0x8(%r14), %rsi
    3159:	b9 16 00 00 00	movl	$0x16, %ecx
    315e:	48 0f 45 c8	cmovneq	%rax, %rcx
    3162:	45 31 c0	xorl	%r8d, %r8d
    3165:	e8 ea 59 02 00	callq	0x28b54 ## symbol stub for: _napi_get_value_string_utf8
    316a:	85 c0	testl	%eax, %eax
    316c:	75 3c	jne	0x31aa
    316e:	48 89 d8	movq	%rbx, %rax
    3171:	48 83 c4 08	addq	$0x8, %rsp
    3175:	5b	popq	%rbx
    3176:	41 5e	popq	%r14
    3178:	41 5f	popq	%r15
    317a:	5d	popq	%rbp
    317b:	c3	retq
    317c:	bf 38 00 00 00	movl	$0x38, %edi
    3181:	e8 5a 58 02 00	callq	0x289e0 ## symbol stub for: ___cxa_allocate_exception
    3186:	48 89 c3	movq	%rax, %rbx
    3189:	49 8b 36	movq	(%r14), %rsi
    318c:	48 89 c7	movq	%rax, %rdi
    318f:	e8 6c 1f 00 00	callq	__ZN4Napi5Error3NewEP10napi_env__ ## Napi::Error::New(napi_env__*)
    3194:	48 8b 35 ad 8e 02 00	movq	0x28ead(%rip), %rsi ## literal pool symbol address: __ZTIN4Napi5ErrorE
    319b:	48 8b 15 66 8e 02 00	movq	0x28e66(%rip), %rdx
    31a2:	48 89 df	movq	%rbx, %rdi
    31a5:	e8 54 58 02 00	callq	0x289fe ## symbol stub for: ___cxa_throw
    31aa:	bf 38 00 00 00	movl	$0x38, %edi
    31af:	e8 2c 58 02 00	callq	0x289e0 ## symbol stub for: ___cxa_allocate_exception
    31b4:	49 89 c7	movq	%rax, %r15
    31b7:	49 8b 36	movq	(%r14), %rsi
    31ba:	48 89 c7	movq	%rax, %rdi
    31bd:	e8 3e 1f 00 00	callq	__ZN4Napi5Error3NewEP10napi_env__ ## Napi::Error::New(napi_env__*)
    31c2:	48 8b 35 7f 8e 02 00	movq	0x28e7f(%rip), %rsi ## literal pool symbol address: __ZTIN4Napi5ErrorE
    31c9:	48 8b 15 38 8e 02 00	movq	0x28e38(%rip), %rdx
    31d0:	4c 89 ff	movq	%r15, %rdi
    31d3:	e8 26 58 02 00	callq	0x289fe ## symbol stub for: ___cxa_throw
    31d8:	eb 33	jmp	0x320d
    31da:	49 89 c6	movq	%rax, %r14
    31dd:	4c 89 ff	movq	%r15, %rdi
    31e0:	e8 13 58 02 00	callq	0x289f8 ## symbol stub for: ___cxa_free_exception
    31e5:	eb 10	jmp	0x31f7
    31e7:	49 89 c6	movq	%rax, %r14
    31ea:	48 89 df	movq	%rbx, %rdi
    31ed:	e8 06 58 02 00	callq	0x289f8 ## symbol stub for: ___cxa_free_exception
    31f2:	eb 11	jmp	0x3205
    31f4:	49 89 c6	movq	%rax, %r14
    31f7:	f6 03 01	testb	$0x1, (%rbx)
    31fa:	74 09	je	0x3205
    31fc:	48 8b 7b 10	movq	0x10(%rbx), %rdi
    3200:	e8 bd 57 02 00	callq	0x289c2 ## symbol stub for: __ZdlPv
    3205:	4c 89 f7	movq	%r14, %rdi
    3208:	e8 c5 56 02 00	callq	0x288d2 ## symbol stub for: __Unwind_Resume
    320d:	0f 0b	ud2
    320f:	90	nop
__Z25DecompressAndDecryptDb_V2RKN4Napi12CallbackInfoE:
    3210:	55	pushq	%rbp
    3211:	48 89 e5	movq	%rsp, %rbp
    3214:	41 57	pushq	%r15
    3216:	41 56	pushq	%r14
    3218:	41 54	pushq	%r12
    321a:	53	pushq	%rbx
    321b:	48 81 ec e0 00 00 00	subq	$0xe0, %rsp
    3222:	48 89 fb	movq	%rdi, %rbx
    3225:	4c 8b 77 08	movq	0x8(%rdi), %r14
    3229:	48 8d 75 b8	leaq	-0x48(%rbp), %rsi
    322d:	4c 89 f7	movq	%r14, %rdi
    3230:	e8 b3 58 02 00	callq	0x28ae8 ## symbol stub for: _napi_create_object
    3235:	85 c0	testl	%eax, %eax
    3237:	0f 85 d0 05 00 00	jne	0x380d
    323d:	48 8b 45 b8	movq	-0x48(%rbp), %rax
    3241:	4c 89 75 d0	movq	%r14, -0x30(%rbp)
    3245:	48 89 45 d8	movq	%rax, -0x28(%rbp)
    3249:	48 83 7b 20 03	cmpq	$0x3, 0x20(%rbx)
    324e:	77 79	ja	0x32c9
    3250:	f2 0f 10 05 48 75 02 00	movsd	0x27548(%rip), %xmm0
    3258:	48 8d 75 b8	leaq	-0x48(%rbp), %rsi
    325c:	4c 89 f7	movq	%r14, %rdi
    325f:	e8 6c 58 02 00	callq	0x28ad0 ## symbol stub for: _napi_create_double
    3264:	85 c0	testl	%eax, %eax
    3266:	0f 85 be 05 00 00	jne	0x382a
    326c:	48 8b 4d b8	movq	-0x48(%rbp), %rcx
    3270:	48 8b 7d d0	movq	-0x30(%rbp), %rdi
    3274:	48 8b 75 d8	movq	-0x28(%rbp), %rsi
    3278:	48 8d 15 a7 7a 02 00	leaq	0x27aa7(%rip), %rdx ## literal pool for: "result"
    327f:	e8 fa 58 02 00	callq	0x28b7e ## symbol stub for: _napi_set_named_property
    3284:	85 c0	testl	%eax, %eax
    3286:	0f 85 b8 05 00 00	jne	0x3844
    328c:	48 8d 35 a8 7a 02 00	leaq	0x27aa8(%rip), %rsi ## literal pool for: "Wrong number of arguments"
    3293:	48 8d 4d b8	leaq	-0x48(%rbp), %rcx
    3297:	ba 19 00 00 00	movl	$0x19, %edx
    329c:	4c 89 f7	movq	%r14, %rdi
    329f:	e8 50 58 02 00	callq	0x28af4 ## symbol stub for: _napi_create_string_utf8
    32a4:	85 c0	testl	%eax, %eax
    32a6:	0f 84 be 01 00 00	je	0x346a
    32ac:	bf 38 00 00 00	movl	$0x38, %edi
    32b1:	e8 2a 57 02 00	callq	0x289e0 ## symbol stub for: ___cxa_allocate_exception
    32b6:	49 89 c7	movq	%rax, %r15
    32b9:	48 89 c7	movq	%rax, %rdi
    32bc:	4c 89 f6	movq	%r14, %rsi
    32bf:	e8 3c 1e 00 00	callq	__ZN4Napi5Error3NewEP10napi_env__ ## Napi::Error::New(napi_env__*)
    32c4:	e9 e9 05 00 00	jmp	0x38b2
    32c9:	48 8b 43 28	movq	0x28(%rbx), %rax
    32cd:	48 8b 30	movq	(%rax), %rsi
    32d0:	48 85 f6	testq	%rsi, %rsi
    32d3:	0f 84 35 01 00 00	je	0x340e
    32d9:	4c 8b 7b 08	movq	0x8(%rbx), %r15
    32dd:	48 8d 55 b8	leaq	-0x48(%rbp), %rdx
    32e1:	4c 89 ff	movq	%r15, %rdi
    32e4:	e8 a7 58 02 00	callq	0x28b90 ## symbol stub for: _napi_typeof
    32e9:	85 c0	testl	%eax, %eax
    32eb:	0f 85 d7 05 00 00	jne	0x38c8
    32f1:	83 7d b8 04	cmpl	$0x4, -0x48(%rbp)
    32f5:	0f 85 13 01 00 00	jne	0x340e
    32fb:	4c 8b 7b 08	movq	0x8(%rbx), %r15
    32ff:	48 83 7b 20 02	cmpq	$0x2, 0x20(%rbx)
    3304:	72 12	jb	0x3318
    3306:	48 8b 43 28	movq	0x28(%rbx), %rax
    330a:	48 8b 70 08	movq	0x8(%rax), %rsi
    330e:	48 85 f6	testq	%rsi, %rsi
    3311:	75 26	jne	0x3339
    3313:	e9 f6 00 00 00	jmp	0x340e
    3318:	48 8d 75 b8	leaq	-0x48(%rbp), %rsi
    331c:	4c 89 ff	movq	%r15, %rdi
    331f:	e8 2a 58 02 00	callq	0x28b4e ## symbol stub for: _napi_get_undefined
    3324:	85 c0	testl	%eax, %eax
    3326:	0f 85 d6 05 00 00	jne	0x3902
    332c:	48 8b 75 b8	movq	-0x48(%rbp), %rsi
    3330:	48 85 f6	testq	%rsi, %rsi
    3333:	0f 84 d5 00 00 00	je	0x340e
    3339:	48 8d 55 b8	leaq	-0x48(%rbp), %rdx
    333d:	4c 89 ff	movq	%r15, %rdi
    3340:	e8 4b 58 02 00	callq	0x28b90 ## symbol stub for: _napi_typeof
    3345:	85 c0	testl	%eax, %eax
    3347:	0f 85 98 05 00 00	jne	0x38e5
    334d:	83 7d b8 04	cmpl	$0x4, -0x48(%rbp)
    3351:	0f 85 b7 00 00 00	jne	0x340e
    3357:	4c 8b 7b 08	movq	0x8(%rbx), %r15
    335b:	48 83 7b 20 03	cmpq	$0x3, 0x20(%rbx)
    3360:	72 0a	jb	0x336c
    3362:	48 8b 43 28	movq	0x28(%rbx), %rax
    3366:	48 8b 70 10	movq	0x10(%rax), %rsi
    336a:	eb 18	jmp	0x3384
    336c:	48 8d 75 b8	leaq	-0x48(%rbp), %rsi
    3370:	4c 89 ff	movq	%r15, %rdi
    3373:	e8 d6 57 02 00	callq	0x28b4e ## symbol stub for: _napi_get_undefined
    3378:	85 c0	testl	%eax, %eax
    337a:	0f 85 b6 05 00 00	jne	0x3936
    3380:	48 8b 75 b8	movq	-0x48(%rbp), %rsi
    3384:	48 85 f6	testq	%rsi, %rsi
    3387:	0f 84 81 00 00 00	je	0x340e
    338d:	48 8d 55 b8	leaq	-0x48(%rbp), %rdx
    3391:	4c 89 ff	movq	%r15, %rdi
    3394:	e8 f7 57 02 00	callq	0x28b90 ## symbol stub for: _napi_typeof
    3399:	85 c0	testl	%eax, %eax
    339b:	0f 85 7b 05 00 00	jne	0x391c
    33a1:	83 7d b8 04	cmpl	$0x4, -0x48(%rbp)
    33a5:	75 67	jne	0x340e
    33a7:	4c 8b 7b 08	movq	0x8(%rbx), %r15
    33ab:	48 83 7b 20 04	cmpq	$0x4, 0x20(%rbx)
    33b0:	72 0a	jb	0x33bc
    33b2:	48 8b 43 28	movq	0x28(%rbx), %rax
    33b6:	48 8b 70 18	movq	0x18(%rax), %rsi
    33ba:	eb 18	jmp	0x33d4
    33bc:	48 8d 75 b8	leaq	-0x48(%rbp), %rsi
    33c0:	4c 89 ff	movq	%r15, %rdi
    33c3:	e8 86 57 02 00	callq	0x28b4e ## symbol stub for: _napi_get_undefined
    33c8:	85 c0	testl	%eax, %eax
    33ca:	0f 85 9a 05 00 00	jne	0x396a
    33d0:	48 8b 75 b8	movq	-0x48(%rbp), %rsi
    33d4:	48 85 f6	testq	%rsi, %rsi
    33d7:	74 35	je	0x340e
    33d9:	48 8d 55 b8	leaq	-0x48(%rbp), %rdx
    33dd:	4c 89 ff	movq	%r15, %rdi
    33e0:	e8 ab 57 02 00	callq	0x28b90 ## symbol stub for: _napi_typeof
    33e5:	85 c0	testl	%eax, %eax
    33e7:	0f 85 63 05 00 00	jne	0x3950
    33ed:	83 7d b8 07	cmpl	$0x7, -0x48(%rbp)
    33f1:	75 1b	jne	0x340e
    33f3:	48 83 7b 20 00	cmpq	$0x0, 0x20(%rbx)
    33f8:	4c 8b 7b 08	movq	0x8(%rbx), %r15
    33fc:	0f 84 a6 00 00 00	je	0x34a8
    3402:	48 8b 43 28	movq	0x28(%rbx), %rax
    3406:	48 8b 00	movq	(%rax), %rax
    3409:	e9 b8 00 00 00	jmp	0x34c6
    340e:	f2 0f 10 05 aa 73 02 00	movsd	0x273aa(%rip), %xmm0
    3416:	48 8d 75 b8	leaq	-0x48(%rbp), %rsi
    341a:	4c 89 f7	movq	%r14, %rdi
    341d:	e8 ae 56 02 00	callq	0x28ad0 ## symbol stub for: _napi_create_double
    3422:	85 c0	testl	%eax, %eax
    3424:	0f 85 38 04 00 00	jne	0x3862
    342a:	48 8b 4d b8	movq	-0x48(%rbp), %rcx
    342e:	48 8b 7d d0	movq	-0x30(%rbp), %rdi
    3432:	48 8b 75 d8	movq	-0x28(%rbp), %rsi
    3436:	48 8d 15 e9 78 02 00	leaq	0x278e9(%rip), %rdx ## literal pool for: "result"
    343d:	e8 3c 57 02 00	callq	0x28b7e ## symbol stub for: _napi_set_named_property
    3442:	85 c0	testl	%eax, %eax
    3444:	0f 85 32 04 00 00	jne	0x387c
    344a:	48 8d 35 04 79 02 00	leaq	0x27904(%rip), %rsi ## literal pool for: "Wrong arguments"
    3451:	48 8d 4d b8	leaq	-0x48(%rbp), %rcx
    3455:	ba 0f 00 00 00	movl	$0xf, %edx
    345a:	4c 89 f7	movq	%r14, %rdi
    345d:	e8 92 56 02 00	callq	0x28af4 ## symbol stub for: _napi_create_string_utf8
    3462:	85 c0	testl	%eax, %eax
    3464:	0f 85 30 04 00 00	jne	0x389a
    346a:	48 8b 45 b8	movq	-0x48(%rbp), %rax
    346e:	4c 89 75 b8	movq	%r14, -0x48(%rbp)
    3472:	48 89 45 c0	movq	%rax, -0x40(%rbp)
    3476:	48 8d 35 b0 78 02 00	leaq	0x278b0(%rip), %rsi ## literal pool for: "error_message"
    347d:	48 8d 7d d0	leaq	-0x30(%rbp), %rdi
    3481:	48 8d 55 b8	leaq	-0x48(%rbp), %rdx
    3485:	e8 86 fb ff ff	callq	__ZN4Napi6Object3SetINS_6StringEEEvPKcRKT_ ## void Napi::Object::Set<Napi::String>(char const*, Napi::String const&)
    348a:	4c 8b 75 d0	movq	-0x30(%rbp), %r14
    348e:	48 8b 5d d8	movq	-0x28(%rbp), %rbx
    3492:	4c 89 f0	movq	%r14, %rax
    3495:	48 89 da	movq	%rbx, %rdx
    3498:	48 81 c4 e0 00 00 00	addq	$0xe0, %rsp
    349f:	5b	popq	%rbx
    34a0:	41 5c	popq	%r12
    34a2:	41 5e	popq	%r14
    34a4:	41 5f	popq	%r15
    34a6:	5d	popq	%rbp
    34a7:	c3	retq
    34a8:	48 8d b5 68 ff ff ff	leaq	-0x98(%rbp), %rsi
    34af:	4c 89 ff	movq	%r15, %rdi
    34b2:	e8 97 56 02 00	callq	0x28b4e ## symbol stub for: _napi_get_undefined
    34b7:	85 c0	testl	%eax, %eax
    34b9:	0f 85 6d 06 00 00	jne	0x3b2c
    34bf:	48 8b 85 68 ff ff ff	movq	-0x98(%rbp), %rax
    34c6:	4c 89 bd 68 ff ff ff	movq	%r15, -0x98(%rbp)
    34cd:	48 89 85 70 ff ff ff	movq	%rax, -0x90(%rbp)
    34d4:	48 8d 7d b8	leaq	-0x48(%rbp), %rdi
    34d8:	48 8d b5 68 ff ff ff	leaq	-0x98(%rbp), %rsi
    34df:	e8 fc fb ff ff	callq	__ZNK4Napi6String9Utf8ValueEv ## Napi::String::Utf8Value() const
    34e4:	4c 8b 7b 08	movq	0x8(%rbx), %r15
    34e8:	48 83 7b 20 02	cmpq	$0x2, 0x20(%rbx)
    34ed:	72 0a	jb	0x34f9
    34ef:	48 8b 43 28	movq	0x28(%rbx), %rax
    34f3:	48 8b 40 08	movq	0x8(%rax), %rax
    34f7:	eb 18	jmp	0x3511
    34f9:	48 8d 75 a0	leaq	-0x60(%rbp), %rsi
    34fd:	4c 89 ff	movq	%r15, %rdi
    3500:	e8 49 56 02 00	callq	0x28b4e ## symbol stub for: _napi_get_undefined
    3505:	85 c0	testl	%eax, %eax
    3507:	0f 85 8c 05 00 00	jne	0x3a99
    350d:	48 8b 45 a0	movq	-0x60(%rbp), %rax
    3511:	4c 89 bd 50 ff ff ff	movq	%r15, -0xb0(%rbp)
    3518:	48 89 85 58 ff ff ff	movq	%rax, -0xa8(%rbp)
    351f:	48 8d bd 68 ff ff ff	leaq	-0x98(%rbp), %rdi
    3526:	48 8d b5 50 ff ff ff	leaq	-0xb0(%rbp), %rsi
    352d:	e8 ae fb ff ff	callq	__ZNK4Napi6String9Utf8ValueEv ## Napi::String::Utf8Value() const
    3532:	4c 8b 7b 08	movq	0x8(%rbx), %r15
    3536:	48 83 7b 20 03	cmpq	$0x3, 0x20(%rbx)
    353b:	72 0a	jb	0x3547
    353d:	48 8b 43 28	movq	0x28(%rbx), %rax
    3541:	48 8b 40 10	movq	0x10(%rax), %rax
    3545:	eb 18	jmp	0x355f
    3547:	48 8d 75 88	leaq	-0x78(%rbp), %rsi
    354b:	4c 89 ff	movq	%r15, %rdi
    354e:	e8 fb 55 02 00	callq	0x28b4e ## symbol stub for: _napi_get_undefined
    3553:	85 c0	testl	%eax, %eax
    3555:	0f 85 71 05 00 00	jne	0x3acc
    355b:	48 8b 45 88	movq	-0x78(%rbp), %rax
    355f:	4c 89 7d a0	movq	%r15, -0x60(%rbp)
    3563:	48 89 45 a8	movq	%rax, -0x58(%rbp)
    3567:	48 8d bd 50 ff ff ff	leaq	-0xb0(%rbp), %rdi
    356e:	48 8d 75 a0	leaq	-0x60(%rbp), %rsi
    3572:	e8 69 fb ff ff	callq	__ZNK4Napi6String9Utf8ValueEv ## Napi::String::Utf8Value() const
    3577:	48 83 7b 20 03	cmpq	$0x3, 0x20(%rbx)
    357c:	77 18	ja	0x3596
    357e:	48 8b 5b 08	movq	0x8(%rbx), %rbx
    3582:	48 8d 75 a0	leaq	-0x60(%rbp), %rsi
    3586:	48 89 df	movq	%rbx, %rdi
    3589:	e8 c0 55 02 00	callq	0x28b4e ## symbol stub for: _napi_get_undefined
    358e:	85 c0	testl	%eax, %eax
    3590:	0f 85 66 05 00 00	jne	0x3afc
    3596:	66 c7 45 a0 00 00	movw	$0x0, -0x60(%rbp)
    359c:	48 8d bd 08 ff ff ff	leaq	-0xf8(%rbp), %rdi
    35a3:	48 8d 75 b8	leaq	-0x48(%rbp), %rsi
    35a7:	e8 8c 53 02 00	callq	0x28938 ## symbol stub for: __ZNSt3__112basic_stringIcNS_11char_traitsIcEENS_9allocatorIcEEEC1ERKS5_
    35ac:	48 8d bd 20 ff ff ff	leaq	-0xe0(%rbp), %rdi
    35b3:	48 8d b5 68 ff ff ff	leaq	-0x98(%rbp), %rsi
    35ba:	e8 79 53 02 00	callq	0x28938 ## symbol stub for: __ZNSt3__112basic_stringIcNS_11char_traitsIcEENS_9allocatorIcEEEC1ERKS5_
    35bf:	48 8d bd 38 ff ff ff	leaq	-0xc8(%rbp), %rdi
    35c6:	48 8d b5 50 ff ff ff	leaq	-0xb0(%rbp), %rsi
    35cd:	e8 66 53 02 00	callq	0x28938 ## symbol stub for: __ZNSt3__112basic_stringIcNS_11char_traitsIcEENS_9allocatorIcEEEC1ERKS5_
    35d2:	48 8d 7d 80	leaq	-0x80(%rbp), %rdi
    35d6:	48 8d b5 08 ff ff ff	leaq	-0xf8(%rbp), %rsi
    35dd:	48 8d 95 20 ff ff ff	leaq	-0xe0(%rbp), %rdx
    35e4:	48 8d 8d 38 ff ff ff	leaq	-0xc8(%rbp), %rcx
    35eb:	4c 8d 45 a0	leaq	-0x60(%rbp), %r8
    35ef:	e8 2c 3b 00 00	callq	__ZN18CrossBackupFormat17decryptENSt3__112basic_stringIcNS0_11char_traitsIcEENS0_9allocatorIcEEEES6_S6_RS6_ ## CrossBackupFormat1::decrypt(std::__1::basic_string<char, std::__1::char_traits<char>, std::__1::allocator<char>>, std::__1::basic_string<char, std::__1::char_traits<char>, std::__1::allocator<char>>, std::__1::basic_string<char, std::__1::char_traits<char>, std::__1::allocator<char>>, std::__1::basic_string<char, std::__1::char_traits<char>, std::__1::allocator<char>>&)
    35f4:	89 c3	movl	%eax, %ebx
    35f6:	f6 85 38 ff ff ff 01	testb	$0x1, -0xc8(%rbp)
    35fd:	0f 85 b3 00 00 00	jne	0x36b6
    3603:	f6 85 20 ff ff ff 01	testb	$0x1, -0xe0(%rbp)
    360a:	0f 85 bf 00 00 00	jne	0x36cf
    3610:	f6 85 08 ff ff ff 01	testb	$0x1, -0xf8(%rbp)
    3617:	0f 85 cb 00 00 00	jne	0x36e8
    361d:	85 db	testl	%ebx, %ebx
    361f:	0f 8e d7 00 00 00	jle	0x36fc
    3625:	f2 0f 10 05 7b 71 02 00	movsd	0x2717b(%rip), %xmm0
    362d:	48 8d 75 98	leaq	-0x68(%rbp), %rsi
    3631:	4c 89 f7	movq	%r14, %rdi
    3634:	e8 97 54 02 00	callq	0x28ad0 ## symbol stub for: _napi_create_double
    3639:	85 c0	testl	%eax, %eax
    363b:	0f 85 57 03 00 00	jne	0x3998
    3641:	48 8b 4d 98	movq	-0x68(%rbp), %rcx
    3645:	48 8b 7d d0	movq	-0x30(%rbp), %rdi
    3649:	48 8b 75 d8	movq	-0x28(%rbp), %rsi
    364d:	48 8d 15 d2 76 02 00	leaq	0x276d2(%rip), %rdx ## literal pool for: "result"
    3654:	e8 25 55 02 00	callq	0x28b7e ## symbol stub for: _napi_set_named_property
    3659:	85 c0	testl	%eax, %eax
    365b:	0f 85 6a 03 00 00	jne	0x39cb
    3661:	0f 57 c0	xorps	%xmm0, %xmm0
    3664:	f2 0f 2a c3	cvtsi2sd	%ebx, %xmm0
    3668:	48 8d 75 98	leaq	-0x68(%rbp), %rsi
    366c:	4c 89 f7	movq	%r14, %rdi
    366f:	e8 5c 54 02 00	callq	0x28ad0 ## symbol stub for: _napi_create_double
    3674:	85 c0	testl	%eax, %eax
    3676:	0f 85 83 03 00 00	jne	0x39ff
    367c:	48 8b 4d 98	movq	-0x68(%rbp), %rcx
    3680:	48 8b 7d d0	movq	-0x30(%rbp), %rdi
    3684:	48 8b 75 d8	movq	-0x28(%rbp), %rsi
    3688:	48 8d 15 d6 76 02 00	leaq	0x276d6(%rip), %rdx ## literal pool for: "inner_error"
    368f:	e8 ea 54 02 00	callq	0x28b7e ## symbol stub for: _napi_set_named_property
    3694:	85 c0	testl	%eax, %eax
    3696:	0f 85 96 03 00 00	jne	0x3a32
    369c:	0f b6 55 a0	movzbl	-0x60(%rbp), %edx
    36a0:	f6 c2 01	testb	$0x1, %dl
    36a3:	0f 84 bb 00 00 00	je	0x3764
    36a9:	48 8b 75 b0	movq	-0x50(%rbp), %rsi
    36ad:	48 8b 55 a8	movq	-0x58(%rbp), %rdx
    36b1:	e9 b5 00 00 00	jmp	0x376b
    36b6:	48 8b bd 48 ff ff ff	movq	-0xb8(%rbp), %rdi
    36bd:	e8 00 53 02 00	callq	0x289c2 ## symbol stub for: __ZdlPv
    36c2:	f6 85 20 ff ff ff 01	testb	$0x1, -0xe0(%rbp)
    36c9:	0f 84 41 ff ff ff	je	0x3610
    36cf:	48 8b bd 30 ff ff ff	movq	-0xd0(%rbp), %rdi
    36d6:	e8 e7 52 02 00	callq	0x289c2 ## symbol stub for: __ZdlPv
    36db:	f6 85 08 ff ff ff 01	testb	$0x1, -0xf8(%rbp)
    36e2:	0f 84 35 ff ff ff	je	0x361d
    36e8:	48 8b bd 18 ff ff ff	movq	-0xe8(%rbp), %rdi
    36ef:	e8 ce 52 02 00	callq	0x289c2 ## symbol stub for: __ZdlPv
    36f4:	85 db	testl	%ebx, %ebx
    36f6:	0f 8f 29 ff ff ff	jg	0x3625
    36fc:	48 8d 75 98	leaq	-0x68(%rbp), %rsi
    3700:	66 0f 57 c0	xorpd	%xmm0, %xmm0
    3704:	4c 89 f7	movq	%r14, %rdi
    3707:	e8 c4 53 02 00	callq	0x28ad0 ## symbol stub for: _napi_create_double
    370c:	85 c0	testl	%eax, %eax
    370e:	0f 85 35 04 00 00	jne	0x3b49
    3714:	48 8b 4d 98	movq	-0x68(%rbp), %rcx
    3718:	48 8b 7d d0	movq	-0x30(%rbp), %rdi
    371c:	48 8b 75 d8	movq	-0x28(%rbp), %rsi
    3720:	48 8d 15 ff 75 02 00	leaq	0x275ff(%rip), %rdx ## literal pool for: "result"
    3727:	e8 52 54 02 00	callq	0x28b7e ## symbol stub for: _napi_set_named_property
    372c:	85 c0	testl	%eax, %eax
    372e:	74 6f	je	0x379f
    3730:	bf 38 00 00 00	movl	$0x38, %edi
    3735:	e8 a6 52 02 00	callq	0x289e0 ## symbol stub for: ___cxa_allocate_exception
    373a:	49 89 c4	movq	%rax, %r12
    373d:	48 8b 75 d0	movq	-0x30(%rbp), %rsi
    3741:	48 89 c7	movq	%rax, %rdi
    3744:	e8 b7 19 00 00	callq	__ZN4Napi5Error3NewEP10napi_env__ ## Napi::Error::New(napi_env__*)
    3749:	48 8b 35 f8 88 02 00	movq	0x288f8(%rip), %rsi ## literal pool symbol address: __ZTIN4Napi5ErrorE
    3750:	48 8b 15 b1 88 02 00	movq	0x288b1(%rip), %rdx
    3757:	4c 89 e7	movq	%r12, %rdi
    375a:	e8 9f 52 02 00	callq	0x289fe ## symbol stub for: ___cxa_throw
    375f:	e9 13 04 00 00	jmp	0x3b77
    3764:	48 8d 75 a1	leaq	-0x5f(%rbp), %rsi
    3768:	48 d1 ea	shrq	%rdx
    376b:	48 8d 4d 98	leaq	-0x68(%rbp), %rcx
    376f:	4c 89 f7	movq	%r14, %rdi
    3772:	e8 7d 53 02 00	callq	0x28af4 ## symbol stub for: _napi_create_string_utf8
    3777:	85 c0	testl	%eax, %eax
    3779:	0f 85 e7 02 00 00	jne	0x3a66
    377f:	48 8b 45 98	movq	-0x68(%rbp), %rax
    3783:	4c 89 75 88	movq	%r14, -0x78(%rbp)
    3787:	48 89 45 90	movq	%rax, -0x70(%rbp)
    378b:	48 8d 35 9b 75 02 00	leaq	0x2759b(%rip), %rsi ## literal pool for: "error_message"
    3792:	48 8d 7d d0	leaq	-0x30(%rbp), %rdi
    3796:	48 8d 55 88	leaq	-0x78(%rbp), %rdx
    379a:	e8 71 f8 ff ff	callq	__ZN4Napi6Object3SetINS_6StringEEEvPKcRKT_ ## void Napi::Object::Set<Napi::String>(char const*, Napi::String const&)
    379f:	f6 45 a0 01	testb	$0x1, -0x60(%rbp)
    37a3:	74 09	je	0x37ae
    37a5:	48 8b 7d b0	movq	-0x50(%rbp), %rdi
    37a9:	e8 14 52 02 00	callq	0x289c2 ## symbol stub for: __ZdlPv
    37ae:	4c 8b 75 d0	movq	-0x30(%rbp), %r14
    37b2:	48 8b 5d d8	movq	-0x28(%rbp), %rbx
    37b6:	f6 85 50 ff ff ff 01	testb	$0x1, -0xb0(%rbp)
    37bd:	75 15	jne	0x37d4
    37bf:	f6 85 68 ff ff ff 01	testb	$0x1, -0x98(%rbp)
    37c6:	75 21	jne	0x37e9
    37c8:	f6 45 b8 01	testb	$0x1, -0x48(%rbp)
    37cc:	0f 84 c0 fc ff ff	je	0x3492
    37d2:	eb 2b	jmp	0x37ff
    37d4:	48 8b bd 60 ff ff ff	movq	-0xa0(%rbp), %rdi
    37db:	e8 e2 51 02 00	callq	0x289c2 ## symbol stub for: __ZdlPv
    37e0:	f6 85 68 ff ff ff 01	testb	$0x1, -0x98(%rbp)
    37e7:	74 df	je	0x37c8
    37e9:	48 8b bd 78 ff ff ff	movq	-0x88(%rbp), %rdi
    37f0:	e8 cd 51 02 00	callq	0x289c2 ## symbol stub for: __ZdlPv
    37f5:	f6 45 b8 01	testb	$0x1, -0x48(%rbp)
    37f9:	0f 84 93 fc ff ff	je	0x3492
    37ff:	48 8b 7d c8	movq	-0x38(%rbp), %rdi
    3803:	e8 ba 51 02 00	callq	0x289c2 ## symbol stub for: __ZdlPv
    3808:	e9 85 fc ff ff	jmp	0x3492
    380d:	bf 38 00 00 00	movl	$0x38, %edi
    3812:	e8 c9 51 02 00	callq	0x289e0 ## symbol stub for: ___cxa_allocate_exception
    3817:	49 89 c7	movq	%rax, %r15
    381a:	48 89 c7	movq	%rax, %rdi
    381d:	4c 89 f6	movq	%r14, %rsi
    3820:	e8 db 18 00 00	callq	__ZN4Napi5Error3NewEP10napi_env__ ## Napi::Error::New(napi_env__*)
    3825:	e9 88 00 00 00	jmp	0x38b2
    382a:	bf 38 00 00 00	movl	$0x38, %edi
    382f:	e8 ac 51 02 00	callq	0x289e0 ## symbol stub for: ___cxa_allocate_exception
    3834:	49 89 c7	movq	%rax, %r15
    3837:	48 89 c7	movq	%rax, %rdi
    383a:	4c 89 f6	movq	%r14, %rsi
    383d:	e8 be 18 00 00	callq	__ZN4Napi5Error3NewEP10napi_env__ ## Napi::Error::New(napi_env__*)
    3842:	eb 6e	jmp	0x38b2
    3844:	bf 38 00 00 00	movl	$0x38, %edi
    3849:	e8 92 51 02 00	callq	0x289e0 ## symbol stub for: ___cxa_allocate_exception
    384e:	49 89 c6	movq	%rax, %r14
    3851:	48 8b 75 d0	movq	-0x30(%rbp), %rsi
    3855:	48 89 c7	movq	%rax, %rdi
    3858:	e8 a3 18 00 00	callq	__ZN4Napi5Error3NewEP10napi_env__ ## Napi::Error::New(napi_env__*)
    385d:	e9 20 01 00 00	jmp	0x3982
    3862:	bf 38 00 00 00	movl	$0x38, %edi
    3867:	e8 74 51 02 00	callq	0x289e0 ## symbol stub for: ___cxa_allocate_exception
    386c:	49 89 c7	movq	%rax, %r15
    386f:	48 89 c7	movq	%rax, %rdi
    3872:	4c 89 f6	movq	%r14, %rsi
    3875:	e8 86 18 00 00	callq	__ZN4Napi5Error3NewEP10napi_env__ ## Napi::Error::New(napi_env__*)
    387a:	eb 36	jmp	0x38b2
    387c:	bf 38 00 00 00	movl	$0x38, %edi
    3881:	e8 5a 51 02 00	callq	0x289e0 ## symbol stub for: ___cxa_allocate_exception
    3886:	49 89 c6	movq	%rax, %r14
    3889:	48 8b 75 d0	movq	-0x30(%rbp), %rsi
    388d:	48 89 c7	movq	%rax, %rdi
    3890:	e8 6b 18 00 00	callq	__ZN4Napi5Error3NewEP10napi_env__ ## Napi::Error::New(napi_env__*)
    3895:	e9 e8 00 00 00	jmp	0x3982
    389a:	bf 38 00 00 00	movl	$0x38, %edi
    389f:	e8 3c 51 02 00	callq	0x289e0 ## symbol stub for: ___cxa_allocate_exception
    38a4:	49 89 c7	movq	%rax, %r15
    38a7:	48 89 c7	movq	%rax, %rdi
    38aa:	4c 89 f6	movq	%r14, %rsi
    38ad:	e8 4e 18 00 00	callq	__ZN4Napi5Error3NewEP10napi_env__ ## Napi::Error::New(napi_env__*)
    38b2:	48 8b 35 8f 87 02 00	movq	0x2878f(%rip), %rsi ## literal pool symbol address: __ZTIN4Napi5ErrorE
    38b9:	48 8b 15 48 87 02 00	movq	0x28748(%rip), %rdx
    38c0:	4c 89 ff	movq	%r15, %rdi
    38c3:	e8 36 51 02 00	callq	0x289fe ## symbol stub for: ___cxa_throw
    38c8:	bf 38 00 00 00	movl	$0x38, %edi
    38cd:	e8 0e 51 02 00	callq	0x289e0 ## symbol stub for: ___cxa_allocate_exception
    38d2:	49 89 c6	movq	%rax, %r14
    38d5:	48 89 c7	movq	%rax, %rdi
    38d8:	4c 89 fe	movq	%r15, %rsi
    38db:	e8 20 18 00 00	callq	__ZN4Napi5Error3NewEP10napi_env__ ## Napi::Error::New(napi_env__*)
    38e0:	e9 9d 00 00 00	jmp	0x3982
    38e5:	bf 38 00 00 00	movl	$0x38, %edi
    38ea:	e8 f1 50 02 00	callq	0x289e0 ## symbol stub for: ___cxa_allocate_exception
    38ef:	49 89 c6	movq	%rax, %r14
    38f2:	48 89 c7	movq	%rax, %rdi
    38f5:	4c 89 fe	movq	%r15, %rsi
    38f8:	e8 03 18 00 00	callq	__ZN4Napi5Error3NewEP10napi_env__ ## Napi::Error::New(napi_env__*)
    38fd:	e9 80 00 00 00	jmp	0x3982
    3902:	bf 38 00 00 00	movl	$0x38, %edi
    3907:	e8 d4 50 02 00	callq	0x289e0 ## symbol stub for: ___cxa_allocate_exception
    390c:	49 89 c6	movq	%rax, %r14
    390f:	48 89 c7	movq	%rax, %rdi
    3912:	4c 89 fe	movq	%r15, %rsi
    3915:	e8 e6 17 00 00	callq	__ZN4Napi5Error3NewEP10napi_env__ ## Napi::Error::New(napi_env__*)
    391a:	eb 66	jmp	0x3982
    391c:	bf 38 00 00 00	movl	$0x38, %edi
    3921:	e8 ba 50 02 00	callq	0x289e0 ## symbol stub for: ___cxa_allocate_exception
    3926:	49 89 c6	movq	%rax, %r14
    3929:	48 89 c7	movq	%rax, %rdi
    392c:	4c 89 fe	movq	%r15, %rsi
    392f:	e8 cc 17 00 00	callq	__ZN4Napi5Error3NewEP10napi_env__ ## Napi::Error::New(napi_env__*)
    3934:	eb 4c	jmp	0x3982
    3936:	bf 38 00 00 00	movl	$0x38, %edi
    393b:	e8 a0 50 02 00	callq	0x289e0 ## symbol stub for: ___cxa_allocate_exception
    3940:	49 89 c6	movq	%rax, %r14
    3943:	48 89 c7	movq	%rax, %rdi
    3946:	4c 89 fe	movq	%r15, %rsi
    3949:	e8 b2 17 00 00	callq	__ZN4Napi5Error3NewEP10napi_env__ ## Napi::Error::New(napi_env__*)
    394e:	eb 32	jmp	0x3982
    3950:	bf 38 00 00 00	movl	$0x38, %edi
    3955:	e8 86 50 02 00	callq	0x289e0 ## symbol stub for: ___cxa_allocate_exception
    395a:	49 89 c6	movq	%rax, %r14
    395d:	48 89 c7	movq	%rax, %rdi
    3960:	4c 89 fe	movq	%r15, %rsi
    3963:	e8 98 17 00 00	callq	__ZN4Napi5Error3NewEP10napi_env__ ## Napi::Error::New(napi_env__*)
    3968:	eb 18	jmp	0x3982
    396a:	bf 38 00 00 00	movl	$0x38, %edi
    396f:	e8 6c 50 02 00	callq	0x289e0 ## symbol stub for: ___cxa_allocate_exception
    3974:	49 89 c6	movq	%rax, %r14
    3977:	48 89 c7	movq	%rax, %rdi
    397a:	4c 89 fe	movq	%r15, %rsi
    397d:	e8 7e 17 00 00	callq	__ZN4Napi5Error3NewEP10napi_env__ ## Napi::Error::New(napi_env__*)
    3982:	48 8b 35 bf 86 02 00	movq	0x286bf(%rip), %rsi ## literal pool symbol address: __ZTIN4Napi5ErrorE
    3989:	48 8b 15 78 86 02 00	movq	0x28678(%rip), %rdx
    3990:	4c 89 f7	movq	%r14, %rdi
    3993:	e8 66 50 02 00	callq	0x289fe ## symbol stub for: ___cxa_throw
    3998:	bf 38 00 00 00	movl	$0x38, %edi
    399d:	e8 3e 50 02 00	callq	0x289e0 ## symbol stub for: ___cxa_allocate_exception
    39a2:	49 89 c4	movq	%rax, %r12
    39a5:	48 89 c7	movq	%rax, %rdi
    39a8:	4c 89 f6	movq	%r14, %rsi
    39ab:	e8 50 17 00 00	callq	__ZN4Napi5Error3NewEP10napi_env__ ## Napi::Error::New(napi_env__*)
    39b0:	48 8b 35 91 86 02 00	movq	0x28691(%rip), %rsi ## literal pool symbol address: __ZTIN4Napi5ErrorE
    39b7:	48 8b 15 4a 86 02 00	movq	0x2864a(%rip), %rdx
    39be:	4c 89 e7	movq	%r12, %rdi
    39c1:	e8 38 50 02 00	callq	0x289fe ## symbol stub for: ___cxa_throw
    39c6:	e9 ac 01 00 00	jmp	0x3b77
    39cb:	bf 38 00 00 00	movl	$0x38, %edi
    39d0:	e8 0b 50 02 00	callq	0x289e0 ## symbol stub for: ___cxa_allocate_exception
    39d5:	49 89 c4	movq	%rax, %r12
    39d8:	48 8b 75 d0	movq	-0x30(%rbp), %rsi
    39dc:	48 89 c7	movq	%rax, %rdi
    39df:	e8 1c 17 00 00	callq	__ZN4Napi5Error3NewEP10napi_env__ ## Napi::Error::New(napi_env__*)
    39e4:	48 8b 35 5d 86 02 00	movq	0x2865d(%rip), %rsi ## literal pool symbol address: __ZTIN4Napi5ErrorE
    39eb:	48 8b 15 16 86 02 00	movq	0x28616(%rip), %rdx
    39f2:	4c 89 e7	movq	%r12, %rdi
    39f5:	e8 04 50 02 00	callq	0x289fe ## symbol stub for: ___cxa_throw
    39fa:	e9 78 01 00 00	jmp	0x3b77
    39ff:	bf 38 00 00 00	movl	$0x38, %edi
    3a04:	e8 d7 4f 02 00	callq	0x289e0 ## symbol stub for: ___cxa_allocate_exception
    3a09:	49 89 c4	movq	%rax, %r12
    3a0c:	48 89 c7	movq	%rax, %rdi
    3a0f:	4c 89 f6	movq	%r14, %rsi
    3a12:	e8 e9 16 00 00	callq	__ZN4Napi5Error3NewEP10napi_env__ ## Napi::Error::New(napi_env__*)
    3a17:	48 8b 35 2a 86 02 00	movq	0x2862a(%rip), %rsi ## literal pool symbol address: __ZTIN4Napi5ErrorE
    3a1e:	48 8b 15 e3 85 02 00	movq	0x285e3(%rip), %rdx
    3a25:	4c 89 e7	movq	%r12, %rdi
    3a28:	e8 d1 4f 02 00	callq	0x289fe ## symbol stub for: ___cxa_throw
    3a2d:	e9 45 01 00 00	jmp	0x3b77
    3a32:	bf 38 00 00 00	movl	$0x38, %edi
    3a37:	e8 a4 4f 02 00	callq	0x289e0 ## symbol stub for: ___cxa_allocate_exception
    3a3c:	49 89 c4	movq	%rax, %r12
    3a3f:	48 8b 75 d0	movq	-0x30(%rbp), %rsi
    3a43:	48 89 c7	movq	%rax, %rdi
    3a46:	e8 b5 16 00 00	callq	__ZN4Napi5Error3NewEP10napi_env__ ## Napi::Error::New(napi_env__*)
    3a4b:	48 8b 35 f6 85 02 00	movq	0x285f6(%rip), %rsi ## literal pool symbol address: __ZTIN4Napi5ErrorE
    3a52:	48 8b 15 af 85 02 00	movq	0x285af(%rip), %rdx
    3a59:	4c 89 e7	movq	%r12, %rdi
    3a5c:	e8 9d 4f 02 00	callq	0x289fe ## symbol stub for: ___cxa_throw
    3a61:	e9 11 01 00 00	jmp	0x3b77
    3a66:	bf 38 00 00 00	movl	$0x38, %edi
    3a6b:	e8 70 4f 02 00	callq	0x289e0 ## symbol stub for: ___cxa_allocate_exception
    3a70:	49 89 c4	movq	%rax, %r12
    3a73:	48 89 c7	movq	%rax, %rdi
    3a76:	4c 89 f6	movq	%r14, %rsi
    3a79:	e8 82 16 00 00	callq	__ZN4Napi5Error3NewEP10napi_env__ ## Napi::Error::New(napi_env__*)
    3a7e:	48 8b 35 c3 85 02 00	movq	0x285c3(%rip), %rsi ## literal pool symbol address: __ZTIN4Napi5ErrorE
    3a85:	48 8b 15 7c 85 02 00	movq	0x2857c(%rip), %rdx
    3a8c:	4c 89 e7	movq	%r12, %rdi
    3a8f:	e8 6a 4f 02 00	callq	0x289fe ## symbol stub for: ___cxa_throw
    3a94:	e9 de 00 00 00	jmp	0x3b77
    3a99:	bf 38 00 00 00	movl	$0x38, %edi
    3a9e:	e8 3d 4f 02 00	callq	0x289e0 ## symbol stub for: ___cxa_allocate_exception
    3aa3:	49 89 c6	movq	%rax, %r14
    3aa6:	48 89 c7	movq	%rax, %rdi
    3aa9:	4c 89 fe	movq	%r15, %rsi
    3aac:	e8 4f 16 00 00	callq	__ZN4Napi5Error3NewEP10napi_env__ ## Napi::Error::New(napi_env__*)
    3ab1:	48 8b 35 90 85 02 00	movq	0x28590(%rip), %rsi ## literal pool symbol address: __ZTIN4Napi5ErrorE
    3ab8:	48 8b 15 49 85 02 00	movq	0x28549(%rip), %rdx
    3abf:	4c 89 f7	movq	%r14, %rdi
    3ac2:	e8 37 4f 02 00	callq	0x289fe ## symbol stub for: ___cxa_throw
    3ac7:	e9 ab 00 00 00	jmp	0x3b77
    3acc:	bf 38 00 00 00	movl	$0x38, %edi
    3ad1:	e8 0a 4f 02 00	callq	0x289e0 ## symbol stub for: ___cxa_allocate_exception
    3ad6:	49 89 c6	movq	%rax, %r14
    3ad9:	48 89 c7	movq	%rax, %rdi
    3adc:	4c 89 fe	movq	%r15, %rsi
    3adf:	e8 1c 16 00 00	callq	__ZN4Napi5Error3NewEP10napi_env__ ## Napi::Error::New(napi_env__*)
    3ae4:	48 8b 35 5d 85 02 00	movq	0x2855d(%rip), %rsi ## literal pool symbol address: __ZTIN4Napi5ErrorE
    3aeb:	48 8b 15 16 85 02 00	movq	0x28516(%rip), %rdx
    3af2:	4c 89 f7	movq	%r14, %rdi
    3af5:	e8 04 4f 02 00	callq	0x289fe ## symbol stub for: ___cxa_throw
    3afa:	eb 7b	jmp	0x3b77
    3afc:	bf 38 00 00 00	movl	$0x38, %edi
    3b01:	e8 da 4e 02 00	callq	0x289e0 ## symbol stub for: ___cxa_allocate_exception
    3b06:	49 89 c6	movq	%rax, %r14
    3b09:	48 89 c7	movq	%rax, %rdi
    3b0c:	48 89 de	movq	%rbx, %rsi
    3b0f:	e8 ec 15 00 00	callq	__ZN4Napi5Error3NewEP10napi_env__ ## Napi::Error::New(napi_env__*)
    3b14:	48 8b 35 2d 85 02 00	movq	0x2852d(%rip), %rsi ## literal pool symbol address: __ZTIN4Napi5ErrorE
    3b1b:	48 8b 15 e6 84 02 00	movq	0x284e6(%rip), %rdx
    3b22:	4c 89 f7	movq	%r14, %rdi
    3b25:	e8 d4 4e 02 00	callq	0x289fe ## symbol stub for: ___cxa_throw
    3b2a:	eb 4b	jmp	0x3b77
    3b2c:	bf 38 00 00 00	movl	$0x38, %edi
    3b31:	e8 aa 4e 02 00	callq	0x289e0 ## symbol stub for: ___cxa_allocate_exception
    3b36:	49 89 c6	movq	%rax, %r14
    3b39:	48 89 c7	movq	%rax, %rdi
    3b3c:	4c 89 fe	movq	%r15, %rsi
    3b3f:	e8 bc 15 00 00	callq	__ZN4Napi5Error3NewEP10napi_env__ ## Napi::Error::New(napi_env__*)
    3b44:	e9 39 fe ff ff	jmp	0x3982
    3b49:	bf 38 00 00 00	movl	$0x38, %edi
    3b4e:	e8 8d 4e 02 00	callq	0x289e0 ## symbol stub for: ___cxa_allocate_exception
    3b53:	49 89 c4	movq	%rax, %r12
    3b56:	48 89 c7	movq	%rax, %rdi
    3b59:	4c 89 f6	movq	%r14, %rsi
    3b5c:	e8 9f 15 00 00	callq	__ZN4Napi5Error3NewEP10napi_env__ ## Napi::Error::New(napi_env__*)
    3b61:	48 8b 35 e0 84 02 00	movq	0x284e0(%rip), %rsi ## literal pool symbol address: __ZTIN4Napi5ErrorE
    3b68:	48 8b 15 99 84 02 00	movq	0x28499(%rip), %rdx
    3b6f:	4c 89 e7	movq	%r12, %rdi
    3b72:	e8 87 4e 02 00	callq	0x289fe ## symbol stub for: ___cxa_throw
    3b77:	0f 0b	ud2
    3b79:	eb 56	jmp	0x3bd1
    3b7b:	e9 82 00 00 00	jmp	0x3c02
    3b80:	eb 4f	jmp	0x3bd1
    3b82:	48 89 c3	movq	%rax, %rbx
    3b85:	4c 89 f7	movq	%r14, %rdi
    3b88:	e8 6b 4e 02 00	callq	0x289f8 ## symbol stub for: ___cxa_free_exception
    3b8d:	e9 94 00 00 00	jmp	0x3c26
    3b92:	48 89 c3	movq	%rax, %rbx
    3b95:	4c 89 f7	movq	%r14, %rdi
    3b98:	e8 5b 4e 02 00	callq	0x289f8 ## symbol stub for: ___cxa_free_exception
    3b9d:	f6 85 68 ff ff ff 01	testb	$0x1, -0x98(%rbp)
    3ba4:	0f 84 92 00 00 00	je	0x3c3c
    3baa:	e9 91 04 00 00	jmp	0x4040
    3baf:	48 89 c3	movq	%rax, %rbx
    3bb2:	4c 89 f7	movq	%r14, %rdi
    3bb5:	e8 3e 4e 02 00	callq	0x289f8 ## symbol stub for: ___cxa_free_exception
    3bba:	f6 45 b8 01	testb	$0x1, -0x48(%rbp)
    3bbe:	0f 84 82 00 00 00	je	0x3c46
    3bc4:	e9 9c 04 00 00	jmp	0x4065
    3bc9:	eb 06	jmp	0x3bd1
    3bcb:	eb 04	jmp	0x3bd1
    3bcd:	eb 02	jmp	0x3bd1
    3bcf:	eb 00	jmp	0x3bd1
    3bd1:	49 89 d7	movq	%rdx, %r15
    3bd4:	48 89 c3	movq	%rax, %rbx
    3bd7:	4c 89 e7	movq	%r12, %rdi
    3bda:	e8 19 4e 02 00	callq	0x289f8 ## symbol stub for: ___cxa_free_exception
    3bdf:	f6 45 a0 01	testb	$0x1, -0x60(%rbp)
    3be3:	0f 84 bd 00 00 00	je	0x3ca6
    3be9:	e9 b8 02 00 00	jmp	0x3ea6
    3bee:	eb 12	jmp	0x3c02
    3bf0:	eb 10	jmp	0x3c02
    3bf2:	eb 0e	jmp	0x3c02
    3bf4:	eb 0c	jmp	0x3c02
    3bf6:	eb 0a	jmp	0x3c02
    3bf8:	eb 08	jmp	0x3c02
    3bfa:	eb 06	jmp	0x3c02
    3bfc:	eb 10	jmp	0x3c0e
    3bfe:	eb 02	jmp	0x3c02
    3c00:	eb 0c	jmp	0x3c0e
    3c02:	48 89 c3	movq	%rax, %rbx
    3c05:	4c 89 f7	movq	%r14, %rdi
    3c08:	eb 0a	jmp	0x3c14
    3c0a:	eb 02	jmp	0x3c0e
    3c0c:	eb 00	jmp	0x3c0e
    3c0e:	48 89 c3	movq	%rax, %rbx
    3c11:	4c 89 ff	movq	%r15, %rdi
    3c14:	e8 df 4d 02 00	callq	0x289f8 ## symbol stub for: ___cxa_free_exception
    3c19:	48 89 df	movq	%rbx, %rdi
    3c1c:	e8 b1 4c 02 00	callq	0x288d2 ## symbol stub for: __Unwind_Resume
    3c21:	0f 0b	ud2
    3c23:	48 89 c3	movq	%rax, %rbx
    3c26:	f6 85 50 ff ff ff 01	testb	$0x1, -0xb0(%rbp)
    3c2d:	75 21	jne	0x3c50
    3c2f:	f6 85 68 ff ff ff 01	testb	$0x1, -0x98(%rbp)
    3c36:	0f 85 04 04 00 00	jne	0x4040
    3c3c:	f6 45 b8 01	testb	$0x1, -0x48(%rbp)
    3c40:	0f 85 1f 04 00 00	jne	0x4065
    3c46:	48 89 df	movq	%rbx, %rdi
    3c49:	e8 84 4c 02 00	callq	0x288d2 ## symbol stub for: __Unwind_Resume
    3c4e:	0f 0b	ud2
    3c50:	48 8b bd 60 ff ff ff	movq	-0xa0(%rbp), %rdi
    3c57:	e8 66 4d 02 00	callq	0x289c2 ## symbol stub for: __ZdlPv
    3c5c:	f6 85 68 ff ff ff 01	testb	$0x1, -0x98(%rbp)
    3c63:	74 d7	je	0x3c3c
    3c65:	e9 d6 03 00 00	jmp	0x4040
    3c6a:	e9 27 02 00 00	jmp	0x3e96
    3c6f:	49 89 d7	movq	%rdx, %r15
    3c72:	48 89 c3	movq	%rax, %rbx
    3c75:	f6 85 38 ff ff ff 01	testb	$0x1, -0xc8(%rbp)
    3c7c:	0f 85 cd 00 00 00	jne	0x3d4f
    3c82:	f6 85 20 ff ff ff 01	testb	$0x1, -0xe0(%rbp)
    3c89:	0f 85 bb 01 00 00	jne	0x3e4a
    3c8f:	f6 85 08 ff ff ff 01	testb	$0x1, -0xf8(%rbp)
    3c96:	0f 85 dc 01 00 00	jne	0x3e78
    3c9c:	f6 45 a0 01	testb	$0x1, -0x60(%rbp)
    3ca0:	0f 85 00 02 00 00	jne	0x3ea6
    3ca6:	48 89 df	movq	%rbx, %rdi
    3ca9:	e8 3e 4d 02 00	callq	0x289ec ## symbol stub for: ___cxa_begin_catch
    3cae:	41 83 ff 02	cmpl	$0x2, %r15d
    3cb2:	0f 85 09 02 00 00	jne	0x3ec1
    3cb8:	48 89 c3	movq	%rax, %rbx
    3cbb:	f2 0f 10 05 f5 6a 02 00	movsd	0x26af5(%rip), %xmm0
    3cc3:	48 8d 75 a0	leaq	-0x60(%rbp), %rsi
    3cc7:	4c 89 f7	movq	%r14, %rdi
    3cca:	e8 01 4e 02 00	callq	0x28ad0 ## symbol stub for: _napi_create_double
    3ccf:	85 c0	testl	%eax, %eax
    3cd1:	0f 85 96 00 00 00	jne	0x3d6d
    3cd7:	48 8b 4d a0	movq	-0x60(%rbp), %rcx
    3cdb:	48 8b 7d d0	movq	-0x30(%rbp), %rdi
    3cdf:	48 8b 75 d8	movq	-0x28(%rbp), %rsi
    3ce3:	48 8d 15 3c 70 02 00	leaq	0x2703c(%rip), %rdx ## literal pool for: "result"
    3cea:	e8 8f 4e 02 00	callq	0x28b7e ## symbol stub for: _napi_set_named_property
    3cef:	85 c0	testl	%eax, %eax
    3cf1:	0f 85 a9 00 00 00	jne	0x3da0
    3cf7:	48 8b 03	movq	(%rbx), %rax
    3cfa:	48 89 df	movq	%rbx, %rdi
    3cfd:	ff 50 10	callq	*0x10(%rax)
    3d00:	48 89 c3	movq	%rax, %rbx
    3d03:	48 89 c7	movq	%rax, %rdi
    3d06:	e8 c7 4e 02 00	callq	0x28bd2 ## symbol stub for: _strlen
    3d0b:	48 8d 4d 88	leaq	-0x78(%rbp), %rcx
    3d0f:	4c 89 f7	movq	%r14, %rdi
    3d12:	48 89 de	movq	%rbx, %rsi
    3d15:	48 89 c2	movq	%rax, %rdx
    3d18:	e8 d7 4d 02 00	callq	0x28af4 ## symbol stub for: _napi_create_string_utf8
    3d1d:	85 c0	testl	%eax, %eax
    3d1f:	0f 85 af 00 00 00	jne	0x3dd4
    3d25:	48 8b 45 88	movq	-0x78(%rbp), %rax
    3d29:	4c 89 75 a0	movq	%r14, -0x60(%rbp)
    3d2d:	48 89 45 a8	movq	%rax, -0x58(%rbp)
    3d31:	48 8d 35 f5 6f 02 00	leaq	0x26ff5(%rip), %rsi ## literal pool for: "error_message"
    3d38:	48 8d 7d d0	leaq	-0x30(%rbp), %rdi
    3d3c:	48 8d 55 a0	leaq	-0x60(%rbp), %rdx
    3d40:	e8 cb f2 ff ff	callq	__ZN4Napi6Object3SetINS_6StringEEEvPKcRKT_ ## void Napi::Object::Set<Napi::String>(char const*, Napi::String const&)
    3d45:	e8 a8 4c 02 00	callq	0x289f2 ## symbol stub for: ___cxa_end_catch
    3d4a:	e9 5f fa ff ff	jmp	0x37ae
    3d4f:	48 8b bd 48 ff ff ff	movq	-0xb8(%rbp), %rdi
    3d56:	e8 67 4c 02 00	callq	0x289c2 ## symbol stub for: __ZdlPv
    3d5b:	f6 85 20 ff ff ff 01	testb	$0x1, -0xe0(%rbp)
    3d62:	0f 84 27 ff ff ff	je	0x3c8f
    3d68:	e9 dd 00 00 00	jmp	0x3e4a
    3d6d:	bf 38 00 00 00	movl	$0x38, %edi
    3d72:	e8 69 4c 02 00	callq	0x289e0 ## symbol stub for: ___cxa_allocate_exception
    3d77:	49 89 c7	movq	%rax, %r15
    3d7a:	48 89 c7	movq	%rax, %rdi
    3d7d:	4c 89 f6	movq	%r14, %rsi
    3d80:	e8 7b 13 00 00	callq	__ZN4Napi5Error3NewEP10napi_env__ ## Napi::Error::New(napi_env__*)
    3d85:	48 8b 35 bc 82 02 00	movq	0x282bc(%rip), %rsi ## literal pool symbol address: __ZTIN4Napi5ErrorE
    3d8c:	48 8b 15 75 82 02 00	movq	0x28275(%rip), %rdx
    3d93:	4c 89 ff	movq	%r15, %rdi
    3d96:	e8 63 4c 02 00	callq	0x289fe ## symbol stub for: ___cxa_throw
    3d9b:	e9 d7 fd ff ff	jmp	0x3b77
    3da0:	bf 38 00 00 00	movl	$0x38, %edi
    3da5:	e8 36 4c 02 00	callq	0x289e0 ## symbol stub for: ___cxa_allocate_exception
    3daa:	49 89 c6	movq	%rax, %r14
    3dad:	48 8b 75 d0	movq	-0x30(%rbp), %rsi
    3db1:	48 89 c7	movq	%rax, %rdi
    3db4:	e8 47 13 00 00	callq	__ZN4Napi5Error3NewEP10napi_env__ ## Napi::Error::New(napi_env__*)
    3db9:	48 8b 35 88 82 02 00	movq	0x28288(%rip), %rsi ## literal pool symbol address: __ZTIN4Napi5ErrorE
    3dc0:	48 8b 15 41 82 02 00	movq	0x28241(%rip), %rdx
    3dc7:	4c 89 f7	movq	%r14, %rdi
    3dca:	e8 2f 4c 02 00	callq	0x289fe ## symbol stub for: ___cxa_throw
    3dcf:	e9 a3 fd ff ff	jmp	0x3b77
    3dd4:	bf 38 00 00 00	movl	$0x38, %edi
    3dd9:	e8 02 4c 02 00	callq	0x289e0 ## symbol stub for: ___cxa_allocate_exception
    3dde:	49 89 c7	movq	%rax, %r15
    3de1:	48 89 c7	movq	%rax, %rdi
    3de4:	4c 89 f6	movq	%r14, %rsi
    3de7:	e8 14 13 00 00	callq	__ZN4Napi5Error3NewEP10napi_env__ ## Napi::Error::New(napi_env__*)
    3dec:	48 8b 35 55 82 02 00	movq	0x28255(%rip), %rsi ## literal pool symbol address: __ZTIN4Napi5ErrorE
    3df3:	48 8b 15 0e 82 02 00	movq	0x2820e(%rip), %rdx
    3dfa:	4c 89 ff	movq	%r15, %rdi
    3dfd:	e8 fc 4b 02 00	callq	0x289fe ## symbol stub for: ___cxa_throw
    3e02:	e9 70 fd ff ff	jmp	0x3b77
    3e07:	eb 0d	jmp	0x3e16
    3e09:	48 89 c3	movq	%rax, %rbx
    3e0c:	4c 89 f7	movq	%r14, %rdi
    3e0f:	e8 e4 4b 02 00	callq	0x289f8 ## symbol stub for: ___cxa_free_exception
    3e14:	eb 17	jmp	0x3e2d
    3e16:	48 89 c3	movq	%rax, %rbx
    3e19:	4c 89 ff	movq	%r15, %rdi
    3e1c:	e8 d7 4b 02 00	callq	0x289f8 ## symbol stub for: ___cxa_free_exception
    3e21:	eb 0a	jmp	0x3e2d
    3e23:	e9 fb fd ff ff	jmp	0x3c23
    3e28:	eb 00	jmp	0x3e2a
    3e2a:	48 89 c3	movq	%rax, %rbx
    3e2d:	e8 c0 4b 02 00	callq	0x289f2 ## symbol stub for: ___cxa_end_catch
    3e32:	e9 ef fd ff ff	jmp	0x3c26
    3e37:	49 89 d7	movq	%rdx, %r15
    3e3a:	48 89 c3	movq	%rax, %rbx
    3e3d:	f6 85 20 ff ff ff 01	testb	$0x1, -0xe0(%rbp)
    3e44:	0f 84 45 fe ff ff	je	0x3c8f
    3e4a:	48 8b bd 30 ff ff ff	movq	-0xd0(%rbp), %rdi
    3e51:	e8 6c 4b 02 00	callq	0x289c2 ## symbol stub for: __ZdlPv
    3e56:	f6 85 08 ff ff ff 01	testb	$0x1, -0xf8(%rbp)
    3e5d:	0f 84 39 fe ff ff	je	0x3c9c
    3e63:	eb 13	jmp	0x3e78
    3e65:	49 89 d7	movq	%rdx, %r15
    3e68:	48 89 c3	movq	%rax, %rbx
    3e6b:	f6 85 08 ff ff ff 01	testb	$0x1, -0xf8(%rbp)
    3e72:	0f 84 24 fe ff ff	je	0x3c9c
    3e78:	48 8b bd 18 ff ff ff	movq	-0xe8(%rbp), %rdi
    3e7f:	e8 3e 4b 02 00	callq	0x289c2 ## symbol stub for: __ZdlPv
    3e84:	f6 45 a0 01	testb	$0x1, -0x60(%rbp)
    3e88:	0f 84 18 fe ff ff	je	0x3ca6
    3e8e:	eb 16	jmp	0x3ea6
    3e90:	eb 04	jmp	0x3e96
    3e92:	eb 02	jmp	0x3e96
    3e94:	eb 00	jmp	0x3e96
    3e96:	49 89 d7	movq	%rdx, %r15
    3e99:	48 89 c3	movq	%rax, %rbx
    3e9c:	f6 45 a0 01	testb	$0x1, -0x60(%rbp)
    3ea0:	0f 84 00 fe ff ff	je	0x3ca6
    3ea6:	48 8b 7d b0	movq	-0x50(%rbp), %rdi
    3eaa:	e8 13 4b 02 00	callq	0x289c2 ## symbol stub for: __ZdlPv
    3eaf:	48 89 df	movq	%rbx, %rdi
    3eb2:	e8 35 4b 02 00	callq	0x289ec ## symbol stub for: ___cxa_begin_catch
    3eb7:	41 83 ff 02	cmpl	$0x2, %r15d
    3ebb:	0f 84 f7 fd ff ff	je	0x3cb8
    3ec1:	48 8d 7d 80	leaq	-0x80(%rbp), %rdi
    3ec5:	e8 e6 4a 02 00	callq	0x289b0 ## symbol stub for: __ZSt17current_exceptionv
    3eca:	f2 0f 10 05 de 68 02 00	movsd	0x268de(%rip), %xmm0
    3ed2:	48 8d 75 a0	leaq	-0x60(%rbp), %rsi
    3ed6:	4c 89 f7	movq	%r14, %rdi
    3ed9:	e8 f2 4b 02 00	callq	0x28ad0 ## symbol stub for: _napi_create_double
    3ede:	85 c0	testl	%eax, %eax
    3ee0:	75 73	jne	0x3f55
    3ee2:	48 8b 4d a0	movq	-0x60(%rbp), %rcx
    3ee6:	48 8b 7d d0	movq	-0x30(%rbp), %rdi
    3eea:	48 8b 75 d8	movq	-0x28(%rbp), %rsi
    3eee:	48 8d 15 31 6e 02 00	leaq	0x26e31(%rip), %rdx ## literal pool for: "result"
    3ef5:	e8 84 4c 02 00	callq	0x28b7e ## symbol stub for: _napi_set_named_property
    3efa:	85 c0	testl	%eax, %eax
    3efc:	0f 85 86 00 00 00	jne	0x3f88
    3f02:	48 8d 35 8e 6e 02 00	leaq	0x26e8e(%rip), %rsi ## literal pool for: "Unknown exception"
    3f09:	48 8d 4d 88	leaq	-0x78(%rbp), %rcx
    3f0d:	ba 11 00 00 00	movl	$0x11, %edx
    3f12:	4c 89 f7	movq	%r14, %rdi
    3f15:	e8 da 4b 02 00	callq	0x28af4 ## symbol stub for: _napi_create_string_utf8
    3f1a:	85 c0	testl	%eax, %eax
    3f1c:	0f 85 9a 00 00 00	jne	0x3fbc
    3f22:	48 8b 45 88	movq	-0x78(%rbp), %rax
    3f26:	4c 89 75 a0	movq	%r14, -0x60(%rbp)
    3f2a:	48 89 45 a8	movq	%rax, -0x58(%rbp)
    3f2e:	48 8d 35 f8 6d 02 00	leaq	0x26df8(%rip), %rsi ## literal pool for: "error_message"
    3f35:	48 8d 7d d0	leaq	-0x30(%rbp), %rdi
    3f39:	48 8d 55 a0	leaq	-0x60(%rbp), %rdx
    3f3d:	e8 ce f0 ff ff	callq	__ZN4Napi6Object3SetINS_6StringEEEvPKcRKT_ ## void Napi::Object::Set<Napi::String>(char const*, Napi::String const&)
    3f42:	48 8d 7d 80	leaq	-0x80(%rbp), %rdi
    3f46:	e8 b1 49 02 00	callq	0x288fc ## symbol stub for: __ZNSt13exception_ptrD1Ev
    3f4b:	e8 a2 4a 02 00	callq	0x289f2 ## symbol stub for: ___cxa_end_catch
    3f50:	e9 59 f8 ff ff	jmp	0x37ae
    3f55:	bf 38 00 00 00	movl	$0x38, %edi
    3f5a:	e8 81 4a 02 00	callq	0x289e0 ## symbol stub for: ___cxa_allocate_exception
    3f5f:	49 89 c7	movq	%rax, %r15
    3f62:	48 89 c7	movq	%rax, %rdi
    3f65:	4c 89 f6	movq	%r14, %rsi
    3f68:	e8 93 11 00 00	callq	__ZN4Napi5Error3NewEP10napi_env__ ## Napi::Error::New(napi_env__*)
    3f6d:	48 8b 35 d4 80 02 00	movq	0x280d4(%rip), %rsi ## literal pool symbol address: __ZTIN4Napi5ErrorE
    3f74:	48 8b 15 8d 80 02 00	movq	0x2808d(%rip), %rdx
    3f7b:	4c 89 ff	movq	%r15, %rdi
    3f7e:	e8 7b 4a 02 00	callq	0x289fe ## symbol stub for: ___cxa_throw
    3f83:	e9 ef fb ff ff	jmp	0x3b77
    3f88:	bf 38 00 00 00	movl	$0x38, %edi
    3f8d:	e8 4e 4a 02 00	callq	0x289e0 ## symbol stub for: ___cxa_allocate_exception
    3f92:	49 89 c6	movq	%rax, %r14
    3f95:	48 8b 75 d0	movq	-0x30(%rbp), %rsi
    3f99:	48 89 c7	movq	%rax, %rdi
    3f9c:	e8 5f 11 00 00	callq	__ZN4Napi5Error3NewEP10napi_env__ ## Napi::Error::New(napi_env__*)
    3fa1:	48 8b 35 a0 80 02 00	movq	0x280a0(%rip), %rsi ## literal pool symbol address: __ZTIN4Napi5ErrorE
    3fa8:	48 8b 15 59 80 02 00	movq	0x28059(%rip), %rdx
    3faf:	4c 89 f7	movq	%r14, %rdi
    3fb2:	e8 47 4a 02 00	callq	0x289fe ## symbol stub for: ___cxa_throw
    3fb7:	e9 bb fb ff ff	jmp	0x3b77
    3fbc:	bf 38 00 00 00	movl	$0x38, %edi
    3fc1:	e8 1a 4a 02 00	callq	0x289e0 ## symbol stub for: ___cxa_allocate_exception
    3fc6:	49 89 c7	movq	%rax, %r15
    3fc9:	48 89 c7	movq	%rax, %rdi
    3fcc:	4c 89 f6	movq	%r14, %rsi
    3fcf:	e8 2c 11 00 00	callq	__ZN4Napi5Error3NewEP10napi_env__ ## Napi::Error::New(napi_env__*)
    3fd4:	48 8b 35 6d 80 02 00	movq	0x2806d(%rip), %rsi ## literal pool symbol address: __ZTIN4Napi5ErrorE
    3fdb:	48 8b 15 26 80 02 00	movq	0x28026(%rip), %rdx
    3fe2:	4c 89 ff	movq	%r15, %rdi
    3fe5:	e8 14 4a 02 00	callq	0x289fe ## symbol stub for: ___cxa_throw
    3fea:	e9 88 fb ff ff	jmp	0x3b77
    3fef:	eb 0d	jmp	0x3ffe
    3ff1:	48 89 c3	movq	%rax, %rbx
    3ff4:	4c 89 f7	movq	%r14, %rdi
    3ff7:	e8 fc 49 02 00	callq	0x289f8 ## symbol stub for: ___cxa_free_exception
    3ffc:	eb 17	jmp	0x4015
    3ffe:	48 89 c3	movq	%rax, %rbx
    4001:	4c 89 ff	movq	%r15, %rdi
    4004:	e8 ef 49 02 00	callq	0x289f8 ## symbol stub for: ___cxa_free_exception
    4009:	eb 0a	jmp	0x4015
    400b:	e9 13 fc ff ff	jmp	0x3c23
    4010:	eb 00	jmp	0x4012
    4012:	48 89 c3	movq	%rax, %rbx
    4015:	48 8d 7d 80	leaq	-0x80(%rbp), %rdi
    4019:	e8 de 48 02 00	callq	0x288fc ## symbol stub for: __ZNSt13exception_ptrD1Ev
    401e:	e8 cf 49 02 00	callq	0x289f2 ## symbol stub for: ___cxa_end_catch
    4023:	e9 fe fb ff ff	jmp	0x3c26
    4028:	48 89 c7	movq	%rax, %rdi
    402b:	e8 a0 e3 ff ff	callq	___clang_call_terminate
    4030:	48 89 c3	movq	%rax, %rbx
    4033:	f6 85 68 ff ff ff 01	testb	$0x1, -0x98(%rbp)
    403a:	0f 84 fc fb ff ff	je	0x3c3c
    4040:	48 8b bd 78 ff ff ff	movq	-0x88(%rbp), %rdi
    4047:	e8 76 49 02 00	callq	0x289c2 ## symbol stub for: __ZdlPv
    404c:	f6 45 b8 01	testb	$0x1, -0x48(%rbp)
    4050:	0f 84 f0 fb ff ff	je	0x3c46
    4056:	eb 0d	jmp	0x4065
    4058:	48 89 c3	movq	%rax, %rbx
    405b:	f6 45 b8 01	testb	$0x1, -0x48(%rbp)
    405f:	0f 84 e1 fb ff ff	je	0x3c46
    4065:	48 8b 7d c8	movq	-0x38(%rbp), %rdi
    4069:	e8 54 49 02 00	callq	0x289c2 ## symbol stub for: __ZdlPv
    406e:	48 89 df	movq	%rbx, %rdi
    4071:	e8 5c 48 02 00	callq	0x288d2 ## symbol stub for: __Unwind_Resume
    4076:	0f 0b	ud2
    4078:	0f 1f 84 00 00 00 00 00	nopl	(%rax,%rax)
__Z11ParseBinNetRKN4Napi12CallbackInfoE:
    4080:	55	pushq	%rbp
    4081:	48 89 e5	movq	%rsp, %rbp
    4084:	41 57	pushq	%r15
    4086:	41 56	pushq	%r14
    4088:	41 54	pushq	%r12
    408a:	53	pushq	%rbx
    408b:	48 81 ec b0 00 00 00	subq	$0xb0, %rsp
    4092:	48 89 fb	movq	%rdi, %rbx
    4095:	4c 8b 67 08	movq	0x8(%rdi), %r12
    4099:	48 8d 75 d0	leaq	-0x30(%rbp), %rsi
    409d:	4c 89 e7	movq	%r12, %rdi
    40a0:	e8 43 4a 02 00	callq	0x28ae8 ## symbol stub for: _napi_create_object
    40a5:	85 c0	testl	%eax, %eax
    40a7:	0f 85 1b 03 00 00	jne	0x43c8
    40ad:	48 8b 45 d0	movq	-0x30(%rbp), %rax
    40b1:	4c 89 65 c0	movq	%r12, -0x40(%rbp)
    40b5:	48 89 45 c8	movq	%rax, -0x38(%rbp)
    40b9:	48 83 7b 20 01	cmpq	$0x1, 0x20(%rbx)
    40be:	75 4d	jne	0x410d
    40c0:	48 8b 43 28	movq	0x28(%rbx), %rax
    40c4:	48 8b 30	movq	(%rax), %rsi
    40c7:	48 85 f6	testq	%rsi, %rsi
    40ca:	0f 84 b2 00 00 00	je	0x4182
    40d0:	4c 8b 73 08	movq	0x8(%rbx), %r14
    40d4:	48 8d 55 d0	leaq	-0x30(%rbp), %rdx
    40d8:	4c 89 f7	movq	%r14, %rdi
    40db:	e8 7a 4a 02 00	callq	0x28b5a ## symbol stub for: _napi_is_buffer
    40e0:	85 c0	testl	%eax, %eax
    40e2:	0f 85 35 03 00 00	jne	0x441d
    40e8:	80 7d d0 00	cmpb	$0x0, -0x30(%rbp)
    40ec:	0f 84 90 00 00 00	je	0x4182
    40f2:	48 83 7b 20 00	cmpq	$0x0, 0x20(%rbx)
    40f7:	4c 8b 73 08	movq	0x8(%rbx), %r14
    40fb:	0f 84 15 01 00 00	je	0x4216
    4101:	48 8b 43 28	movq	0x28(%rbx), %rax
    4105:	48 8b 30	movq	(%rax), %rsi
    4108:	e9 21 01 00 00	jmp	0x422e
    410d:	f2 0f 10 05 8b 66 02 00	movsd	0x2668b(%rip), %xmm0
    4115:	48 8d 75 d0	leaq	-0x30(%rbp), %rsi
    4119:	4c 89 e7	movq	%r12, %rdi
    411c:	e8 af 49 02 00	callq	0x28ad0 ## symbol stub for: _napi_create_double
    4121:	85 c0	testl	%eax, %eax
    4123:	0f 85 bc 02 00 00	jne	0x43e5
    4129:	48 8b 4d d0	movq	-0x30(%rbp), %rcx
    412d:	48 8b 7d c0	movq	-0x40(%rbp), %rdi
    4131:	48 8b 75 c8	movq	-0x38(%rbp), %rsi
    4135:	48 8d 15 ea 6b 02 00	leaq	0x26bea(%rip), %rdx ## literal pool for: "result"
    413c:	e8 3d 4a 02 00	callq	0x28b7e ## symbol stub for: _napi_set_named_property
    4141:	85 c0	testl	%eax, %eax
    4143:	0f 85 b9 02 00 00	jne	0x4402
    4149:	48 8d 35 eb 6b 02 00	leaq	0x26beb(%rip), %rsi ## literal pool for: "Wrong number of arguments"
    4150:	48 8d 4d d0	leaq	-0x30(%rbp), %rcx
    4154:	ba 19 00 00 00	movl	$0x19, %edx
    4159:	4c 89 e7	movq	%r12, %rdi
    415c:	e8 93 49 02 00	callq	0x28af4 ## symbol stub for: _napi_create_string_utf8
    4161:	85 c0	testl	%eax, %eax
    4163:	74 79	je	0x41de
    4165:	bf 38 00 00 00	movl	$0x38, %edi
    416a:	e8 71 48 02 00	callq	0x289e0 ## symbol stub for: ___cxa_allocate_exception
    416f:	48 89 c3	movq	%rax, %rbx
    4172:	48 89 c7	movq	%rax, %rdi
    4175:	4c 89 e6	movq	%r12, %rsi
    4178:	e8 83 0f 00 00	callq	__ZN4Napi5Error3NewEP10napi_env__ ## Napi::Error::New(napi_env__*)
    417d:	e9 02 03 00 00	jmp	0x4484
    4182:	f2 0f 10 05 36 66 02 00	movsd	0x26636(%rip), %xmm0
    418a:	48 8d 75 d0	leaq	-0x30(%rbp), %rsi
    418e:	4c 89 e7	movq	%r12, %rdi
    4191:	e8 3a 49 02 00	callq	0x28ad0 ## symbol stub for: _napi_create_double
    4196:	85 c0	testl	%eax, %eax
    4198:	0f 85 99 02 00 00	jne	0x4437
    419e:	48 8b 4d d0	movq	-0x30(%rbp), %rcx
    41a2:	48 8b 7d c0	movq	-0x40(%rbp), %rdi
    41a6:	48 8b 75 c8	movq	-0x38(%rbp), %rsi
    41aa:	48 8d 15 75 6b 02 00	leaq	0x26b75(%rip), %rdx ## literal pool for: "result"
    41b1:	e8 c8 49 02 00	callq	0x28b7e ## symbol stub for: _napi_set_named_property
    41b6:	85 c0	testl	%eax, %eax
    41b8:	0f 85 93 02 00 00	jne	0x4451
    41be:	48 8d 35 90 6b 02 00	leaq	0x26b90(%rip), %rsi ## literal pool for: "Wrong arguments"
    41c5:	48 8d 4d d0	leaq	-0x30(%rbp), %rcx
    41c9:	ba 0f 00 00 00	movl	$0xf, %edx
    41ce:	4c 89 e7	movq	%r12, %rdi
    41d1:	e8 1e 49 02 00	callq	0x28af4 ## symbol stub for: _napi_create_string_utf8
    41d6:	85 c0	testl	%eax, %eax
    41d8:	0f 85 8e 02 00 00	jne	0x446c
    41de:	48 8b 45 d0	movq	-0x30(%rbp), %rax
    41e2:	4c 89 65 d0	movq	%r12, -0x30(%rbp)
    41e6:	48 89 45 d8	movq	%rax, -0x28(%rbp)
    41ea:	48 8d 35 3c 6b 02 00	leaq	0x26b3c(%rip), %rsi ## literal pool for: "error_message"
    41f1:	48 8d 7d c0	leaq	-0x40(%rbp), %rdi
    41f5:	48 8d 55 d0	leaq	-0x30(%rbp), %rdx
    41f9:	e8 12 ee ff ff	callq	__ZN4Napi6Object3SetINS_6StringEEEvPKcRKT_ ## void Napi::Object::Set<Napi::String>(char const*, Napi::String const&)
    41fe:	48 8b 45 c0	movq	-0x40(%rbp), %rax
    4202:	48 8b 55 c8	movq	-0x38(%rbp), %rdx
    4206:	48 81 c4 b0 00 00 00	addq	$0xb0, %rsp
    420d:	5b	popq	%rbx
    420e:	41 5c	popq	%r12
    4210:	41 5e	popq	%r14
    4212:	41 5f	popq	%r15
    4214:	5d	popq	%rbp
    4215:	c3	retq
    4216:	48 8d 75 b8	leaq	-0x48(%rbp), %rsi
    421a:	4c 89 f7	movq	%r14, %rdi
    421d:	e8 2c 49 02 00	callq	0x28b4e ## symbol stub for: _napi_get_undefined
    4222:	85 c0	testl	%eax, %eax
    4224:	0f 85 da 02 00 00	jne	0x4504
    422a:	48 8b 75 b8	movq	-0x48(%rbp), %rsi
    422e:	4c 89 b5 70 ff ff ff	movq	%r14, -0x90(%rbp)
    4235:	48 89 b5 78 ff ff ff	movq	%rsi, -0x88(%rbp)
    423c:	48 8d 55 80	leaq	-0x80(%rbp), %rdx
    4240:	c7 45 80 ff ff ff ff	movl	$0xffffffff, -0x80(%rbp)
    4247:	48 8d 4d 88	leaq	-0x78(%rbp), %rcx
    424b:	4c 8d 45 90	leaq	-0x70(%rbp), %r8
    424f:	48 c7 45 88 00 00 00 00	movq	$0x0, -0x78(%rbp)
    4257:	48 c7 45 90 00 00 00 00	movq	$0x0, -0x70(%rbp)
    425f:	48 c7 04 24 00 00 00 00	movq	$0x0, (%rsp)
    4267:	4c 89 f7	movq	%r14, %rdi
    426a:	45 31 c9	xorl	%r9d, %r9d
    426d:	e8 d6 48 02 00	callq	0x28b48 ## symbol stub for: _napi_get_typedarray_info
    4272:	85 c0	testl	%eax, %eax
    4274:	0f 85 20 02 00 00	jne	0x449a
    427a:	48 c7 45 a0 00 00 00 00	movq	$0x0, -0x60(%rbp)
    4282:	48 c7 45 98 00 00 00 00	movq	$0x0, -0x68(%rbp)
    428a:	48 8b 45 a0	movq	-0x60(%rbp), %rax
    428e:	48 89 44 24 30	movq	%rax, 0x30(%rsp)
    4293:	48 8b 45 98	movq	-0x68(%rbp), %rax
    4297:	48 89 44 24 28	movq	%rax, 0x28(%rsp)
    429c:	48 8b 45 90	movq	-0x70(%rbp), %rax
    42a0:	48 89 44 24 20	movq	%rax, 0x20(%rsp)
    42a5:	48 8b 45 88	movq	-0x78(%rbp), %rax
    42a9:	48 89 44 24 18	movq	%rax, 0x18(%rsp)
    42ae:	48 8b 45 80	movq	-0x80(%rbp), %rax
    42b2:	48 89 44 24 10	movq	%rax, 0x10(%rsp)
    42b7:	48 8b 85 70 ff ff ff	movq	-0x90(%rbp), %rax
    42be:	48 8b 8d 78 ff ff ff	movq	-0x88(%rbp), %rcx
    42c5:	48 89 4c 24 08	movq	%rcx, 0x8(%rsp)
    42ca:	48 89 04 24	movq	%rax, (%rsp)
    42ce:	48 8d 7d c0	leaq	-0x40(%rbp), %rdi
    42d2:	e8 99 3c 00 00	callq	__Z13parse_bin_netN4Napi6BufferIcEERNS_6ObjectE ## parse_bin_net(Napi::Buffer<char>, Napi::Object&)
    42d7:	83 f8 ff	cmpl	$-0x1, %eax
    42da:	74 6b	je	0x4347
    42dc:	48 8d 75 b8	leaq	-0x48(%rbp), %rsi
    42e0:	0f 57 c0	xorps	%xmm0, %xmm0
    42e3:	4c 89 e7	movq	%r12, %rdi
    42e6:	e8 e5 47 02 00	callq	0x28ad0 ## symbol stub for: _napi_create_double
    42eb:	85 c0	testl	%eax, %eax
    42ed:	0f 85 de 01 00 00	jne	0x44d1
    42f3:	48 8b 4d b8	movq	-0x48(%rbp), %rcx
    42f7:	48 8b 7d c0	movq	-0x40(%rbp), %rdi
    42fb:	48 8b 75 c8	movq	-0x38(%rbp), %rsi
    42ff:	48 8d 15 20 6a 02 00	leaq	0x26a20(%rip), %rdx ## literal pool for: "result"
    4306:	e8 73 48 02 00	callq	0x28b7e ## symbol stub for: _napi_set_named_property
    430b:	85 c0	testl	%eax, %eax
    430d:	0f 84 eb fe ff ff	je	0x41fe
    4313:	bf 38 00 00 00	movl	$0x38, %edi
    4318:	e8 c3 46 02 00	callq	0x289e0 ## symbol stub for: ___cxa_allocate_exception
    431d:	48 89 c3	movq	%rax, %rbx
    4320:	48 8b 75 c0	movq	-0x40(%rbp), %rsi
    4324:	48 89 c7	movq	%rax, %rdi
    4327:	e8 d4 0d 00 00	callq	__ZN4Napi5Error3NewEP10napi_env__ ## Napi::Error::New(napi_env__*)
    432c:	48 8b 35 15 7d 02 00	movq	0x27d15(%rip), %rsi ## literal pool symbol address: __ZTIN4Napi5ErrorE
    4333:	48 8b 15 ce 7c 02 00	movq	0x27cce(%rip), %rdx
    433a:	48 89 df	movq	%rbx, %rdi
    433d:	e8 bc 46 02 00	callq	0x289fe ## symbol stub for: ___cxa_throw
    4342:	e9 7f 02 00 00	jmp	0x45c6
    4347:	f2 0f 10 05 59 64 02 00	movsd	0x26459(%rip), %xmm0
    434f:	48 8d 75 b8	leaq	-0x48(%rbp), %rsi
    4353:	4c 89 e7	movq	%r12, %rdi
    4356:	e8 75 47 02 00	callq	0x28ad0 ## symbol stub for: _napi_create_double
    435b:	85 c0	testl	%eax, %eax
    435d:	0f 85 d4 01 00 00	jne	0x4537
    4363:	48 8b 4d b8	movq	-0x48(%rbp), %rcx
    4367:	48 8b 7d c0	movq	-0x40(%rbp), %rdi
    436b:	48 8b 75 c8	movq	-0x38(%rbp), %rsi
    436f:	48 8d 15 b0 69 02 00	leaq	0x269b0(%rip), %rdx ## literal pool for: "result"
    4376:	e8 03 48 02 00	callq	0x28b7e ## symbol stub for: _napi_set_named_property
    437b:	85 c0	testl	%eax, %eax
    437d:	0f 85 e4 01 00 00	jne	0x4567
    4383:	48 8d 35 1f 6a 02 00	leaq	0x26a1f(%rip), %rsi ## literal pool for: "Something went wrong while parsing"
    438a:	48 8d 4d b8	leaq	-0x48(%rbp), %rcx
    438e:	ba 22 00 00 00	movl	$0x22, %edx
    4393:	4c 89 e7	movq	%r12, %rdi
    4396:	e8 59 47 02 00	callq	0x28af4 ## symbol stub for: _napi_create_string_utf8
    439b:	85 c0	testl	%eax, %eax
    439d:	0f 85 f5 01 00 00	jne	0x4598
    43a3:	48 8b 45 b8	movq	-0x48(%rbp), %rax
    43a7:	4c 89 65 d0	movq	%r12, -0x30(%rbp)
    43ab:	48 89 45 d8	movq	%rax, -0x28(%rbp)
    43af:	48 8d 35 77 69 02 00	leaq	0x26977(%rip), %rsi ## literal pool for: "error_message"
    43b6:	48 8d 7d c0	leaq	-0x40(%rbp), %rdi
    43ba:	48 8d 55 d0	leaq	-0x30(%rbp), %rdx
    43be:	e8 4d ec ff ff	callq	__ZN4Napi6Object3SetINS_6StringEEEvPKcRKT_ ## void Napi::Object::Set<Napi::String>(char const*, Napi::String const&)
    43c3:	e9 36 fe ff ff	jmp	0x41fe
    43c8:	bf 38 00 00 00	movl	$0x38, %edi
    43cd:	e8 0e 46 02 00	callq	0x289e0 ## symbol stub for: ___cxa_allocate_exception
    43d2:	48 89 c3	movq	%rax, %rbx
    43d5:	48 89 c7	movq	%rax, %rdi
    43d8:	4c 89 e6	movq	%r12, %rsi
    43db:	e8 20 0d 00 00	callq	__ZN4Napi5Error3NewEP10napi_env__ ## Napi::Error::New(napi_env__*)
    43e0:	e9 9f 00 00 00	jmp	0x4484
    43e5:	bf 38 00 00 00	movl	$0x38, %edi
    43ea:	e8 f1 45 02 00	callq	0x289e0 ## symbol stub for: ___cxa_allocate_exception
    43ef:	48 89 c3	movq	%rax, %rbx
    43f2:	48 89 c7	movq	%rax, %rdi
    43f5:	4c 89 e6	movq	%r12, %rsi
    43f8:	e8 03 0d 00 00	callq	__ZN4Napi5Error3NewEP10napi_env__ ## Napi::Error::New(napi_env__*)
    43fd:	e9 82 00 00 00	jmp	0x4484
    4402:	bf 38 00 00 00	movl	$0x38, %edi
    4407:	e8 d4 45 02 00	callq	0x289e0 ## symbol stub for: ___cxa_allocate_exception
    440c:	48 89 c3	movq	%rax, %rbx
    440f:	48 8b 75 c0	movq	-0x40(%rbp), %rsi
    4413:	48 89 c7	movq	%rax, %rdi
    4416:	e8 e5 0c 00 00	callq	__ZN4Napi5Error3NewEP10napi_env__ ## Napi::Error::New(napi_env__*)
    441b:	eb 67	jmp	0x4484
    441d:	bf 38 00 00 00	movl	$0x38, %edi
    4422:	e8 b9 45 02 00	callq	0x289e0 ## symbol stub for: ___cxa_allocate_exception
    4427:	48 89 c3	movq	%rax, %rbx
    442a:	48 89 c7	movq	%rax, %rdi
    442d:	4c 89 f6	movq	%r14, %rsi
    4430:	e8 cb 0c 00 00	callq	__ZN4Napi5Error3NewEP10napi_env__ ## Napi::Error::New(napi_env__*)
    4435:	eb 4d	jmp	0x4484
    4437:	bf 38 00 00 00	movl	$0x38, %edi
    443c:	e8 9f 45 02 00	callq	0x289e0 ## symbol stub for: ___cxa_allocate_exception
    4441:	48 89 c3	movq	%rax, %rbx
    4444:	48 89 c7	movq	%rax, %rdi
    4447:	4c 89 e6	movq	%r12, %rsi
    444a:	e8 b1 0c 00 00	callq	__ZN4Napi5Error3NewEP10napi_env__ ## Napi::Error::New(napi_env__*)
    444f:	eb 33	jmp	0x4484
    4451:	bf 38 00 00 00	movl	$0x38, %edi
    4456:	e8 85 45 02 00	callq	0x289e0 ## symbol stub for: ___cxa_allocate_exception
    445b:	48 89 c3	movq	%rax, %rbx
    445e:	48 8b 75 c0	movq	-0x40(%rbp), %rsi
    4462:	48 89 c7	movq	%rax, %rdi
    4465:	e8 96 0c 00 00	callq	__ZN4Napi5Error3NewEP10napi_env__ ## Napi::Error::New(napi_env__*)
    446a:	eb 18	jmp	0x4484
    446c:	bf 38 00 00 00	movl	$0x38, %edi
    4471:	e8 6a 45 02 00	callq	0x289e0 ## symbol stub for: ___cxa_allocate_exception
    4476:	48 89 c3	movq	%rax, %rbx
    4479:	48 89 c7	movq	%rax, %rdi
    447c:	4c 89 e6	movq	%r12, %rsi
    447f:	e8 7c 0c 00 00	callq	__ZN4Napi5Error3NewEP10napi_env__ ## Napi::Error::New(napi_env__*)
    4484:	48 8b 35 bd 7b 02 00	movq	0x27bbd(%rip), %rsi ## literal pool symbol address: __ZTIN4Napi5ErrorE
    448b:	48 8b 15 76 7b 02 00	movq	0x27b76(%rip), %rdx
    4492:	48 89 df	movq	%rbx, %rdi
    4495:	e8 64 45 02 00	callq	0x289fe ## symbol stub for: ___cxa_throw
    449a:	bf 38 00 00 00	movl	$0x38, %edi
    449f:	e8 3c 45 02 00	callq	0x289e0 ## symbol stub for: ___cxa_allocate_exception
    44a4:	48 89 c3	movq	%rax, %rbx
    44a7:	48 8b b5 70 ff ff ff	movq	-0x90(%rbp), %rsi
    44ae:	48 89 c7	movq	%rax, %rdi
    44b1:	e8 4a 0c 00 00	callq	__ZN4Napi5Error3NewEP10napi_env__ ## Napi::Error::New(napi_env__*)
    44b6:	48 8b 35 8b 7b 02 00	movq	0x27b8b(%rip), %rsi ## literal pool symbol address: __ZTIN4Napi5ErrorE
    44bd:	48 8b 15 44 7b 02 00	movq	0x27b44(%rip), %rdx
    44c4:	48 89 df	movq	%rbx, %rdi
    44c7:	e8 32 45 02 00	callq	0x289fe ## symbol stub for: ___cxa_throw
    44cc:	e9 f5 00 00 00	jmp	0x45c6
    44d1:	bf 38 00 00 00	movl	$0x38, %edi
    44d6:	e8 05 45 02 00	callq	0x289e0 ## symbol stub for: ___cxa_allocate_exception
    44db:	48 89 c3	movq	%rax, %rbx
    44de:	48 89 c7	movq	%rax, %rdi
    44e1:	4c 89 e6	movq	%r12, %rsi
    44e4:	e8 17 0c 00 00	callq	__ZN4Napi5Error3NewEP10napi_env__ ## Napi::Error::New(napi_env__*)
    44e9:	48 8b 35 58 7b 02 00	movq	0x27b58(%rip), %rsi ## literal pool symbol address: __ZTIN4Napi5ErrorE
    44f0:	48 8b 15 11 7b 02 00	movq	0x27b11(%rip), %rdx
    44f7:	48 89 df	movq	%rbx, %rdi
    44fa:	e8 ff 44 02 00	callq	0x289fe ## symbol stub for: ___cxa_throw
    44ff:	e9 c2 00 00 00	jmp	0x45c6
    4504:	bf 38 00 00 00	movl	$0x38, %edi
    4509:	e8 d2 44 02 00	callq	0x289e0 ## symbol stub for: ___cxa_allocate_exception
    450e:	48 89 c3	movq	%rax, %rbx
    4511:	48 89 c7	movq	%rax, %rdi
    4514:	4c 89 f6	movq	%r14, %rsi
    4517:	e8 e4 0b 00 00	callq	__ZN4Napi5Error3NewEP10napi_env__ ## Napi::Error::New(napi_env__*)
    451c:	48 8b 35 25 7b 02 00	movq	0x27b25(%rip), %rsi ## literal pool symbol address: __ZTIN4Napi5ErrorE
    4523:	48 8b 15 de 7a 02 00	movq	0x27ade(%rip), %rdx
    452a:	48 89 df	movq	%rbx, %rdi
    452d:	e8 cc 44 02 00	callq	0x289fe ## symbol stub for: ___cxa_throw
    4532:	e9 8f 00 00 00	jmp	0x45c6
    4537:	bf 38 00 00 00	movl	$0x38, %edi
    453c:	e8 9f 44 02 00	callq	0x289e0 ## symbol stub for: ___cxa_allocate_exception
    4541:	48 89 c3	movq	%rax, %rbx
    4544:	48 89 c7	movq	%rax, %rdi
    4547:	4c 89 e6	movq	%r12, %rsi
    454a:	e8 b1 0b 00 00	callq	__ZN4Napi5Error3NewEP10napi_env__ ## Napi::Error::New(napi_env__*)
    454f:	48 8b 35 f2 7a 02 00	movq	0x27af2(%rip), %rsi ## literal pool symbol address: __ZTIN4Napi5ErrorE
    4556:	48 8b 15 ab 7a 02 00	movq	0x27aab(%rip), %rdx
    455d:	48 89 df	movq	%rbx, %rdi
    4560:	e8 99 44 02 00	callq	0x289fe ## symbol stub for: ___cxa_throw
    4565:	eb 5f	jmp	0x45c6
    4567:	bf 38 00 00 00	movl	$0x38, %edi
    456c:	e8 6f 44 02 00	callq	0x289e0 ## symbol stub for: ___cxa_allocate_exception
    4571:	48 89 c3	movq	%rax, %rbx
    4574:	48 8b 75 c0	movq	-0x40(%rbp), %rsi
    4578:	48 89 c7	movq	%rax, %rdi
    457b:	e8 80 0b 00 00	callq	__ZN4Napi5Error3NewEP10napi_env__ ## Napi::Error::New(napi_env__*)
    4580:	48 8b 35 c1 7a 02 00	movq	0x27ac1(%rip), %rsi ## literal pool symbol address: __ZTIN4Napi5ErrorE
    4587:	48 8b 15 7a 7a 02 00	movq	0x27a7a(%rip), %rdx
    458e:	48 89 df	movq	%rbx, %rdi
    4591:	e8 68 44 02 00	callq	0x289fe ## symbol stub for: ___cxa_throw
    4596:	eb 2e	jmp	0x45c6
    4598:	bf 38 00 00 00	movl	$0x38, %edi
    459d:	e8 3e 44 02 00	callq	0x289e0 ## symbol stub for: ___cxa_allocate_exception
    45a2:	48 89 c3	movq	%rax, %rbx
    45a5:	48 89 c7	movq	%rax, %rdi
    45a8:	4c 89 e6	movq	%r12, %rsi
    45ab:	e8 50 0b 00 00	callq	__ZN4Napi5Error3NewEP10napi_env__ ## Napi::Error::New(napi_env__*)
    45b0:	48 8b 35 91 7a 02 00	movq	0x27a91(%rip), %rsi ## literal pool symbol address: __ZTIN4Napi5ErrorE
    45b7:	48 8b 15 4a 7a 02 00	movq	0x27a4a(%rip), %rdx
    45be:	48 89 df	movq	%rbx, %rdi
    45c1:	e8 38 44 02 00	callq	0x289fe ## symbol stub for: ___cxa_throw
    45c6:	0f 0b	ud2
    45c8:	eb 0a	jmp	0x45d4
    45ca:	eb 08	jmp	0x45d4
    45cc:	eb 06	jmp	0x45d4
    45ce:	eb 04	jmp	0x45d4
    45d0:	eb 02	jmp	0x45d4
    45d2:	eb 00	jmp	0x45d4
    45d4:	49 89 d6	movq	%rdx, %r14
    45d7:	49 89 c7	movq	%rax, %r15
    45da:	48 89 df	movq	%rbx, %rdi
    45dd:	e8 16 44 02 00	callq	0x289f8 ## symbol stub for: ___cxa_free_exception
    45e2:	eb 2a	jmp	0x460e
    45e4:	eb 0c	jmp	0x45f2
    45e6:	eb 0a	jmp	0x45f2
    45e8:	eb 08	jmp	0x45f2
    45ea:	eb 06	jmp	0x45f2
    45ec:	eb 04	jmp	0x45f2
    45ee:	eb 02	jmp	0x45f2
    45f0:	eb 00	jmp	0x45f2
    45f2:	49 89 c7	movq	%rax, %r15
    45f5:	48 89 df	movq	%rbx, %rdi
    45f8:	e8 fb 43 02 00	callq	0x289f8 ## symbol stub for: ___cxa_free_exception
    45fd:	e9 c2 02 00 00	jmp	0x48c4
    4602:	eb 04	jmp	0x4608
    4604:	eb 02	jmp	0x4608
    4606:	eb 00	jmp	0x4608
    4608:	49 89 d6	movq	%rdx, %r14
    460b:	49 89 c7	movq	%rax, %r15
    460e:	4c 89 ff	movq	%r15, %rdi
    4611:	e8 d6 43 02 00	callq	0x289ec ## symbol stub for: ___cxa_begin_catch
    4616:	41 83 fe 02	cmpl	$0x2, %r14d
    461a:	0f 85 97 00 00 00	jne	0x46b7
    4620:	48 89 c3	movq	%rax, %rbx
    4623:	f2 0f 10 05 8d 61 02 00	movsd	0x2618d(%rip), %xmm0
    462b:	48 8d 75 d0	leaq	-0x30(%rbp), %rsi
    462f:	4c 89 e7	movq	%r12, %rdi
    4632:	e8 99 44 02 00	callq	0x28ad0 ## symbol stub for: _napi_create_double
    4637:	85 c0	testl	%eax, %eax
    4639:	0f 85 10 01 00 00	jne	0x474f
    463f:	48 8b 4d d0	movq	-0x30(%rbp), %rcx
    4643:	48 8b 7d c0	movq	-0x40(%rbp), %rdi
    4647:	48 8b 75 c8	movq	-0x38(%rbp), %rsi
    464b:	48 8d 15 d4 66 02 00	leaq	0x266d4(%rip), %rdx ## literal pool for: "result"
    4652:	e8 27 45 02 00	callq	0x28b7e ## symbol stub for: _napi_set_named_property
    4657:	85 c0	testl	%eax, %eax
    4659:	0f 85 23 01 00 00	jne	0x4782
    465f:	48 8b 03	movq	(%rbx), %rax
    4662:	48 89 df	movq	%rbx, %rdi
    4665:	ff 50 10	callq	*0x10(%rax)
    4668:	48 89 c3	movq	%rax, %rbx
    466b:	48 89 c7	movq	%rax, %rdi
    466e:	e8 5f 45 02 00	callq	0x28bd2 ## symbol stub for: _strlen
    4673:	48 8d 4d b0	leaq	-0x50(%rbp), %rcx
    4677:	4c 89 e7	movq	%r12, %rdi
    467a:	48 89 de	movq	%rbx, %rsi
    467d:	48 89 c2	movq	%rax, %rdx
    4680:	e8 6f 44 02 00	callq	0x28af4 ## symbol stub for: _napi_create_string_utf8
    4685:	85 c0	testl	%eax, %eax
    4687:	0f 85 29 01 00 00	jne	0x47b6
    468d:	48 8b 45 b0	movq	-0x50(%rbp), %rax
    4691:	4c 89 65 d0	movq	%r12, -0x30(%rbp)
    4695:	48 89 45 d8	movq	%rax, -0x28(%rbp)
    4699:	48 8d 35 8d 66 02 00	leaq	0x2668d(%rip), %rsi ## literal pool for: "error_message"
    46a0:	48 8d 7d c0	leaq	-0x40(%rbp), %rdi
    46a4:	48 8d 55 d0	leaq	-0x30(%rbp), %rdx
    46a8:	e8 63 e9 ff ff	callq	__ZN4Napi6Object3SetINS_6StringEEEvPKcRKT_ ## void Napi::Object::Set<Napi::String>(char const*, Napi::String const&)
    46ad:	e8 40 43 02 00	callq	0x289f2 ## symbol stub for: ___cxa_end_catch
    46b2:	e9 47 fb ff ff	jmp	0x41fe
    46b7:	48 8d 7d a8	leaq	-0x58(%rbp), %rdi
    46bb:	e8 f0 42 02 00	callq	0x289b0 ## symbol stub for: __ZSt17current_exceptionv
    46c0:	f2 0f 10 05 e8 60 02 00	movsd	0x260e8(%rip), %xmm0
    46c8:	48 8d 75 d0	leaq	-0x30(%rbp), %rsi
    46cc:	4c 89 e7	movq	%r12, %rdi
    46cf:	e8 fc 43 02 00	callq	0x28ad0 ## symbol stub for: _napi_create_double
    46d4:	85 c0	testl	%eax, %eax
    46d6:	0f 85 0d 01 00 00	jne	0x47e9
    46dc:	48 8b 4d d0	movq	-0x30(%rbp), %rcx
    46e0:	48 8b 7d c0	movq	-0x40(%rbp), %rdi
    46e4:	48 8b 75 c8	movq	-0x38(%rbp), %rsi
    46e8:	48 8d 15 37 66 02 00	leaq	0x26637(%rip), %rdx ## literal pool for: "result"
    46ef:	e8 8a 44 02 00	callq	0x28b7e ## symbol stub for: _napi_set_named_property
    46f4:	85 c0	testl	%eax, %eax
    46f6:	0f 85 20 01 00 00	jne	0x481c
    46fc:	48 8d 35 94 66 02 00	leaq	0x26694(%rip), %rsi ## literal pool for: "Unknown exception"
    4703:	48 8d 4d b0	leaq	-0x50(%rbp), %rcx
    4707:	ba 11 00 00 00	movl	$0x11, %edx
    470c:	4c 89 e7	movq	%r12, %rdi
    470f:	e8 e0 43 02 00	callq	0x28af4 ## symbol stub for: _napi_create_string_utf8
    4714:	85 c0	testl	%eax, %eax
    4716:	0f 85 34 01 00 00	jne	0x4850
    471c:	48 8b 45 b0	movq	-0x50(%rbp), %rax
    4720:	4c 89 65 d0	movq	%r12, -0x30(%rbp)
    4724:	48 89 45 d8	movq	%rax, -0x28(%rbp)
    4728:	48 8d 35 fe 65 02 00	leaq	0x265fe(%rip), %rsi ## literal pool for: "error_message"
    472f:	48 8d 7d c0	leaq	-0x40(%rbp), %rdi
    4733:	48 8d 55 d0	leaq	-0x30(%rbp), %rdx
    4737:	e8 d4 e8 ff ff	callq	__ZN4Napi6Object3SetINS_6StringEEEvPKcRKT_ ## void Napi::Object::Set<Napi::String>(char const*, Napi::String const&)
    473c:	48 8d 7d a8	leaq	-0x58(%rbp), %rdi
    4740:	e8 b7 41 02 00	callq	0x288fc ## symbol stub for: __ZNSt13exception_ptrD1Ev
    4745:	e8 a8 42 02 00	callq	0x289f2 ## symbol stub for: ___cxa_end_catch
    474a:	e9 af fa ff ff	jmp	0x41fe
    474f:	bf 38 00 00 00	movl	$0x38, %edi
    4754:	e8 87 42 02 00	callq	0x289e0 ## symbol stub for: ___cxa_allocate_exception
    4759:	49 89 c6	movq	%rax, %r14
    475c:	48 89 c7	movq	%rax, %rdi
    475f:	4c 89 e6	movq	%r12, %rsi
    4762:	e8 99 09 00 00	callq	__ZN4Napi5Error3NewEP10napi_env__ ## Napi::Error::New(napi_env__*)
    4767:	48 8b 35 da 78 02 00	movq	0x278da(%rip), %rsi ## literal pool symbol address: __ZTIN4Napi5ErrorE
    476e:	48 8b 15 93 78 02 00	movq	0x27893(%rip), %rdx
    4775:	4c 89 f7	movq	%r14, %rdi
    4778:	e8 81 42 02 00	callq	0x289fe ## symbol stub for: ___cxa_throw
    477d:	e9 44 fe ff ff	jmp	0x45c6
    4782:	bf 38 00 00 00	movl	$0x38, %edi
    4787:	e8 54 42 02 00	callq	0x289e0 ## symbol stub for: ___cxa_allocate_exception
    478c:	49 89 c6	movq	%rax, %r14
    478f:	48 8b 75 c0	movq	-0x40(%rbp), %rsi
    4793:	48 89 c7	movq	%rax, %rdi
    4796:	e8 65 09 00 00	callq	__ZN4Napi5Error3NewEP10napi_env__ ## Napi::Error::New(napi_env__*)
    479b:	48 8b 35 a6 78 02 00	movq	0x278a6(%rip), %rsi ## literal pool symbol address: __ZTIN4Napi5ErrorE
    47a2:	48 8b 15 5f 78 02 00	movq	0x2785f(%rip), %rdx
    47a9:	4c 89 f7	movq	%r14, %rdi
    47ac:	e8 4d 42 02 00	callq	0x289fe ## symbol stub for: ___cxa_throw
    47b1:	e9 10 fe ff ff	jmp	0x45c6
    47b6:	bf 38 00 00 00	movl	$0x38, %edi
    47bb:	e8 20 42 02 00	callq	0x289e0 ## symbol stub for: ___cxa_allocate_exception
    47c0:	49 89 c6	movq	%rax, %r14
    47c3:	48 89 c7	movq	%rax, %rdi
    47c6:	4c 89 e6	movq	%r12, %rsi
    47c9:	e8 32 09 00 00	callq	__ZN4Napi5Error3NewEP10napi_env__ ## Napi::Error::New(napi_env__*)
    47ce:	48 8b 35 73 78 02 00	movq	0x27873(%rip), %rsi ## literal pool symbol address: __ZTIN4Napi5ErrorE
    47d5:	48 8b 15 2c 78 02 00	movq	0x2782c(%rip), %rdx
    47dc:	4c 89 f7	movq	%r14, %rdi
    47df:	e8 1a 42 02 00	callq	0x289fe ## symbol stub for: ___cxa_throw
    47e4:	e9 dd fd ff ff	jmp	0x45c6
    47e9:	bf 38 00 00 00	movl	$0x38, %edi
    47ee:	e8 ed 41 02 00	callq	0x289e0 ## symbol stub for: ___cxa_allocate_exception
    47f3:	49 89 c6	movq	%rax, %r14
    47f6:	48 89 c7	movq	%rax, %rdi
    47f9:	4c 89 e6	movq	%r12, %rsi
    47fc:	e8 ff 08 00 00	callq	__ZN4Napi5Error3NewEP10napi_env__ ## Napi::Error::New(napi_env__*)
    4801:	48 8b 35 40 78 02 00	movq	0x27840(%rip), %rsi ## literal pool symbol address: __ZTIN4Napi5ErrorE
    4808:	48 8b 15 f9 77 02 00	movq	0x277f9(%rip), %rdx
    480f:	4c 89 f7	movq	%r14, %rdi
    4812:	e8 e7 41 02 00	callq	0x289fe ## symbol stub for: ___cxa_throw
    4817:	e9 aa fd ff ff	jmp	0x45c6
    481c:	bf 38 00 00 00	movl	$0x38, %edi
    4821:	e8 ba 41 02 00	callq	0x289e0 ## symbol stub for: ___cxa_allocate_exception
    4826:	49 89 c6	movq	%rax, %r14
    4829:	48 8b 75 c0	movq	-0x40(%rbp), %rsi
    482d:	48 89 c7	movq	%rax, %rdi
    4830:	e8 cb 08 00 00	callq	__ZN4Napi5Error3NewEP10napi_env__ ## Napi::Error::New(napi_env__*)
    4835:	48 8b 35 0c 78 02 00	movq	0x2780c(%rip), %rsi ## literal pool symbol address: __ZTIN4Napi5ErrorE
    483c:	48 8b 15 c5 77 02 00	movq	0x277c5(%rip), %rdx
    4843:	4c 89 f7	movq	%r14, %rdi
    4846:	e8 b3 41 02 00	callq	0x289fe ## symbol stub for: ___cxa_throw
    484b:	e9 76 fd ff ff	jmp	0x45c6
    4850:	bf 38 00 00 00	movl	$0x38, %edi
    4855:	e8 86 41 02 00	callq	0x289e0 ## symbol stub for: ___cxa_allocate_exception
    485a:	49 89 c6	movq	%rax, %r14
    485d:	48 89 c7	movq	%rax, %rdi
    4860:	4c 89 e6	movq	%r12, %rsi
    4863:	e8 98 08 00 00	callq	__ZN4Napi5Error3NewEP10napi_env__ ## Napi::Error::New(napi_env__*)
    4868:	48 8b 35 d9 77 02 00	movq	0x277d9(%rip), %rsi ## literal pool symbol address: __ZTIN4Napi5ErrorE
    486f:	48 8b 15 92 77 02 00	movq	0x27792(%rip), %rdx
    4876:	4c 89 f7	movq	%r14, %rdi
    4879:	e8 80 41 02 00	callq	0x289fe ## symbol stub for: ___cxa_throw
    487e:	e9 43 fd ff ff	jmp	0x45c6
    4883:	eb 02	jmp	0x4887
    4885:	eb 00	jmp	0x4887
    4887:	49 89 c7	movq	%rax, %r15
    488a:	4c 89 f7	movq	%r14, %rdi
    488d:	e8 66 41 02 00	callq	0x289f8 ## symbol stub for: ___cxa_free_exception
    4892:	eb 18	jmp	0x48ac
    4894:	eb 02	jmp	0x4898
    4896:	eb 00	jmp	0x4898
    4898:	49 89 c7	movq	%rax, %r15
    489b:	4c 89 f7	movq	%r14, %rdi
    489e:	e8 55 41 02 00	callq	0x289f8 ## symbol stub for: ___cxa_free_exception
    48a3:	eb 1a	jmp	0x48bf
    48a5:	eb 02	jmp	0x48a9
    48a7:	eb 13	jmp	0x48bc
    48a9:	49 89 c7	movq	%rax, %r15
    48ac:	48 8d 7d a8	leaq	-0x58(%rbp), %rdi
    48b0:	e8 47 40 02 00	callq	0x288fc ## symbol stub for: __ZNSt13exception_ptrD1Ev
    48b5:	e8 38 41 02 00	callq	0x289f2 ## symbol stub for: ___cxa_end_catch
    48ba:	eb 08	jmp	0x48c4
    48bc:	49 89 c7	movq	%rax, %r15
    48bf:	e8 2e 41 02 00	callq	0x289f2 ## symbol stub for: ___cxa_end_catch
    48c4:	4c 89 ff	movq	%r15, %rdi
    48c7:	e8 06 40 02 00	callq	0x288d2 ## symbol stub for: __Unwind_Resume
    48cc:	0f 0b	ud2
    48ce:	48 89 c7	movq	%rax, %rdi
    48d1:	e8 fa da ff ff	callq	___clang_call_terminate
    48d6:	66 2e 0f 1f 84 00 00 00 00 00	nopw	%cs:(%rax,%rax)
__Z4InitN4Napi3EnvENS_6ObjectE:
    48e0:	55	pushq	%rbp
    48e1:	48 89 e5	movq	%rsp, %rbp
    48e4:	41 57	pushq	%r15
    48e6:	41 56	pushq	%r14
    48e8:	41 54	pushq	%r12
    48ea:	53	pushq	%rbx
    48eb:	48 83 ec 10	subq	$0x10, %rsp
    48ef:	49 89 d7	movq	%rdx, %r15
    48f2:	49 89 f6	movq	%rsi, %r14
    48f5:	49 89 fc	movq	%rdi, %r12
    48f8:	48 8d 35 cd 64 02 00	leaq	0x264cd(%rip), %rsi ## literal pool for: "getVersion"
    48ff:	48 8d 4d d8	leaq	-0x28(%rbp), %rcx
    4903:	ba 0a 00 00 00	movl	$0xa, %edx
    4908:	e8 e7 41 02 00	callq	0x28af4 ## symbol stub for: _napi_create_string_utf8
    490d:	85 c0	testl	%eax, %eax
    490f:	0f 85 33 01 00 00	jne	0x4a48
    4915:	48 8b 5d d8	movq	-0x28(%rbp), %rbx
    4919:	48 8d 35 c0 da ff ff	leaq	__Z10GetVersionRKN4Napi12CallbackInfoE(%rip), %rsi ## GetVersion(Napi::CallbackInfo const&)
    4920:	4c 89 e7	movq	%r12, %rdi
    4923:	31 d2	xorl	%edx, %edx
    4925:	31 c9	xorl	%ecx, %ecx
    4927:	e8 44 02 00 00	callq	__ZN4Napi8Function3NewIPFNS_6StringERKNS_12CallbackInfoEEEES0_P10napi_env__T_PKcPv ## Napi::Function Napi::Function::New<Napi::String (*)(Napi::CallbackInfo const&)>(napi_env__*, Napi::String (*)(Napi::CallbackInfo const&), char const*, void*)
    492c:	48 89 d1	movq	%rdx, %rcx
    492f:	4c 89 f7	movq	%r14, %rdi
    4932:	4c 89 fe	movq	%r15, %rsi
    4935:	48 89 da	movq	%rbx, %rdx
    4938:	e8 47 42 02 00	callq	0x28b84 ## symbol stub for: _napi_set_property
    493d:	85 c0	testl	%eax, %eax
    493f:	0f 85 20 01 00 00	jne	0x4a65
    4945:	48 8d 35 8b 64 02 00	leaq	0x2648b(%rip), %rsi ## literal pool for: "parseBinNet"
    494c:	48 8d 4d d8	leaq	-0x28(%rbp), %rcx
    4950:	ba 0b 00 00 00	movl	$0xb, %edx
    4955:	4c 89 e7	movq	%r12, %rdi
    4958:	e8 97 41 02 00	callq	0x28af4 ## symbol stub for: _napi_create_string_utf8
    495d:	85 c0	testl	%eax, %eax
    495f:	0f 85 1d 01 00 00	jne	0x4a82
    4965:	48 8b 5d d8	movq	-0x28(%rbp), %rbx
    4969:	48 8d 35 10 f7 ff ff	leaq	__Z11ParseBinNetRKN4Napi12CallbackInfoE(%rip), %rsi ## ParseBinNet(Napi::CallbackInfo const&)
    4970:	4c 89 e7	movq	%r12, %rdi
    4973:	31 d2	xorl	%edx, %edx
    4975:	31 c9	xorl	%ecx, %ecx
    4977:	e8 44 03 00 00	callq	__ZN4Napi8Function3NewIPFNS_5ValueERKNS_12CallbackInfoEEEES0_P10napi_env__T_PKcPv ## Napi::Function Napi::Function::New<Napi::Value (*)(Napi::CallbackInfo const&)>(napi_env__*, Napi::Value (*)(Napi::CallbackInfo const&), char const*, void*)
    497c:	48 89 d1	movq	%rdx, %rcx
    497f:	4c 89 f7	movq	%r14, %rdi
    4982:	4c 89 fe	movq	%r15, %rsi
    4985:	48 89 da	movq	%rbx, %rdx
    4988:	e8 f7 41 02 00	callq	0x28b84 ## symbol stub for: _napi_set_property
    498d:	85 c0	testl	%eax, %eax
    498f:	0f 85 07 01 00 00	jne	0x4a9c
    4995:	48 8d 35 47 64 02 00	leaq	0x26447(%rip), %rsi ## literal pool for: "decompressAndDecryptDb"
    499c:	48 8d 4d d8	leaq	-0x28(%rbp), %rcx
    49a0:	ba 16 00 00 00	movl	$0x16, %edx
    49a5:	4c 89 e7	movq	%r12, %rdi
    49a8:	e8 47 41 02 00	callq	0x28af4 ## symbol stub for: _napi_create_string_utf8
    49ad:	85 c0	testl	%eax, %eax
    49af:	0f 85 01 01 00 00	jne	0x4ab6
    49b5:	48 8b 5d d8	movq	-0x28(%rbp), %rbx
    49b9:	48 8d 35 a0 da ff ff	leaq	__Z22DecompressAndDecryptDbRKN4Napi12CallbackInfoE(%rip), %rsi ## DecompressAndDecryptDb(Napi::CallbackInfo const&)
    49c0:	4c 89 e7	movq	%r12, %rdi
    49c3:	31 d2	xorl	%edx, %edx
    49c5:	31 c9	xorl	%ecx, %ecx
    49c7:	e8 f4 02 00 00	callq	__ZN4Napi8Function3NewIPFNS_5ValueERKNS_12CallbackInfoEEEES0_P10napi_env__T_PKcPv ## Napi::Function Napi::Function::New<Napi::Value (*)(Napi::CallbackInfo const&)>(napi_env__*, Napi::Value (*)(Napi::CallbackInfo const&), char const*, void*)
    49cc:	48 89 d1	movq	%rdx, %rcx
    49cf:	4c 89 f7	movq	%r14, %rdi
    49d2:	4c 89 fe	movq	%r15, %rsi
    49d5:	48 89 da	movq	%rbx, %rdx
    49d8:	e8 a7 41 02 00	callq	0x28b84 ## symbol stub for: _napi_set_property
    49dd:	85 c0	testl	%eax, %eax
    49df:	0f 85 eb 00 00 00	jne	0x4ad0
    49e5:	48 8d 35 0e 64 02 00	leaq	0x2640e(%rip), %rsi ## literal pool for: "decompressAndDecryptDb_V2"
    49ec:	48 8d 4d d8	leaq	-0x28(%rbp), %rcx
    49f0:	ba 19 00 00 00	movl	$0x19, %edx
    49f5:	4c 89 e7	movq	%r12, %rdi
    49f8:	e8 f7 40 02 00	callq	0x28af4 ## symbol stub for: _napi_create_string_utf8
    49fd:	85 c0	testl	%eax, %eax
    49ff:	0f 85 e5 00 00 00	jne	0x4aea
    4a05:	48 8b 5d d8	movq	-0x28(%rbp), %rbx
    4a09:	48 8d 35 00 e8 ff ff	leaq	__Z25DecompressAndDecryptDb_V2RKN4Napi12CallbackInfoE(%rip), %rsi ## DecompressAndDecryptDb_V2(Napi::CallbackInfo const&)
    4a10:	4c 89 e7	movq	%r12, %rdi
    4a13:	31 d2	xorl	%edx, %edx
    4a15:	31 c9	xorl	%ecx, %ecx
    4a17:	e8 a4 02 00 00	callq	__ZN4Napi8Function3NewIPFNS_5ValueERKNS_12CallbackInfoEEEES0_P10napi_env__T_PKcPv ## Napi::Function Napi::Function::New<Napi::Value (*)(Napi::CallbackInfo const&)>(napi_env__*, Napi::Value (*)(Napi::CallbackInfo const&), char const*, void*)
    4a1c:	48 89 d1	movq	%rdx, %rcx
    4a1f:	4c 89 f7	movq	%r14, %rdi
    4a22:	4c 89 fe	movq	%r15, %rsi
    4a25:	48 89 da	movq	%rbx, %rdx
    4a28:	e8 57 41 02 00	callq	0x28b84 ## symbol stub for: _napi_set_property
    4a2d:	85 c0	testl	%eax, %eax
    4a2f:	0f 85 e3 00 00 00	jne	0x4b18
    4a35:	4c 89 f0	movq	%r14, %rax
    4a38:	4c 89 fa	movq	%r15, %rdx
    4a3b:	48 83 c4 10	addq	$0x10, %rsp
    4a3f:	5b	popq	%rbx
    4a40:	41 5c	popq	%r12
    4a42:	41 5e	popq	%r14
    4a44:	41 5f	popq	%r15
    4a46:	5d	popq	%rbp
    4a47:	c3	retq
    4a48:	bf 38 00 00 00	movl	$0x38, %edi
    4a4d:	e8 8e 3f 02 00	callq	0x289e0 ## symbol stub for: ___cxa_allocate_exception
    4a52:	49 89 c6	movq	%rax, %r14
    4a55:	48 89 c7	movq	%rax, %rdi
    4a58:	4c 89 e6	movq	%r12, %rsi
    4a5b:	e8 a0 06 00 00	callq	__ZN4Napi5Error3NewEP10napi_env__ ## Napi::Error::New(napi_env__*)
    4a60:	e9 9d 00 00 00	jmp	0x4b02
    4a65:	bf 38 00 00 00	movl	$0x38, %edi
    4a6a:	e8 71 3f 02 00	callq	0x289e0 ## symbol stub for: ___cxa_allocate_exception
    4a6f:	48 89 c3	movq	%rax, %rbx
    4a72:	48 89 c7	movq	%rax, %rdi
    4a75:	4c 89 f6	movq	%r14, %rsi
    4a78:	e8 83 06 00 00	callq	__ZN4Napi5Error3NewEP10napi_env__ ## Napi::Error::New(napi_env__*)
    4a7d:	e9 ae 00 00 00	jmp	0x4b30
    4a82:	bf 38 00 00 00	movl	$0x38, %edi
    4a87:	e8 54 3f 02 00	callq	0x289e0 ## symbol stub for: ___cxa_allocate_exception
    4a8c:	49 89 c6	movq	%rax, %r14
    4a8f:	48 89 c7	movq	%rax, %rdi
    4a92:	4c 89 e6	movq	%r12, %rsi
    4a95:	e8 66 06 00 00	callq	__ZN4Napi5Error3NewEP10napi_env__ ## Napi::Error::New(napi_env__*)
    4a9a:	eb 66	jmp	0x4b02
    4a9c:	bf 38 00 00 00	movl	$0x38, %edi
    4aa1:	e8 3a 3f 02 00	callq	0x289e0 ## symbol stub for: ___cxa_allocate_exception
    4aa6:	48 89 c3	movq	%rax, %rbx
    4aa9:	48 89 c7	movq	%rax, %rdi
    4aac:	4c 89 f6	movq	%r14, %rsi
    4aaf:	e8 4c 06 00 00	callq	__ZN4Napi5Error3NewEP10napi_env__ ## Napi::Error::New(napi_env__*)
    4ab4:	eb 7a	jmp	0x4b30
    4ab6:	bf 38 00 00 00	movl	$0x38, %edi
    4abb:	e8 20 3f 02 00	callq	0x289e0 ## symbol stub for: ___cxa_allocate_exception
    4ac0:	49 89 c6	movq	%rax, %r14
    4ac3:	48 89 c7	movq	%rax, %rdi
    4ac6:	4c 89 e6	movq	%r12, %rsi
    4ac9:	e8 32 06 00 00	callq	__ZN4Napi5Error3NewEP10napi_env__ ## Napi::Error::New(napi_env__*)
    4ace:	eb 32	jmp	0x4b02
    4ad0:	bf 38 00 00 00	movl	$0x38, %edi
    4ad5:	e8 06 3f 02 00	callq	0x289e0 ## symbol stub for: ___cxa_allocate_exception
    4ada:	48 89 c3	movq	%rax, %rbx
    4add:	48 89 c7	movq	%rax, %rdi
    4ae0:	4c 89 f6	movq	%r14, %rsi
    4ae3:	e8 18 06 00 00	callq	__ZN4Napi5Error3NewEP10napi_env__ ## Napi::Error::New(napi_env__*)
    4ae8:	eb 46	jmp	0x4b30
    4aea:	bf 38 00 00 00	movl	$0x38, %edi
    4aef:	e8 ec 3e 02 00	callq	0x289e0 ## symbol stub for: ___cxa_allocate_exception
    4af4:	49 89 c6	movq	%rax, %r14
    4af7:	48 89 c7	movq	%rax, %rdi
    4afa:	4c 89 e6	movq	%r12, %rsi
    4afd:	e8 fe 05 00 00	callq	__ZN4Napi5Error3NewEP10napi_env__ ## Napi::Error::New(napi_env__*)
    4b02:	48 8b 35 3f 75 02 00	movq	0x2753f(%rip), %rsi ## literal pool symbol address: __ZTIN4Napi5ErrorE
    4b09:	48 8b 15 f8 74 02 00	movq	0x274f8(%rip), %rdx
    4b10:	4c 89 f7	movq	%r14, %rdi
    4b13:	e8 e6 3e 02 00	callq	0x289fe ## symbol stub for: ___cxa_throw
    4b18:	bf 38 00 00 00	movl	$0x38, %edi
    4b1d:	e8 be 3e 02 00	callq	0x289e0 ## symbol stub for: ___cxa_allocate_exception
    4b22:	48 89 c3	movq	%rax, %rbx
    4b25:	48 89 c7	movq	%rax, %rdi
    4b28:	4c 89 f6	movq	%r14, %rsi
    4b2b:	e8 d0 05 00 00	callq	__ZN4Napi5Error3NewEP10napi_env__ ## Napi::Error::New(napi_env__*)
    4b30:	48 8b 35 11 75 02 00	movq	0x27511(%rip), %rsi ## literal pool symbol address: __ZTIN4Napi5ErrorE
    4b37:	48 8b 15 ca 74 02 00	movq	0x274ca(%rip), %rdx
    4b3e:	48 89 df	movq	%rbx, %rdi
    4b41:	e8 b8 3e 02 00	callq	0x289fe ## symbol stub for: ___cxa_throw
    4b46:	eb 0a	jmp	0x4b52
    4b48:	eb 10	jmp	0x4b5a
    4b4a:	eb 06	jmp	0x4b52
    4b4c:	eb 0c	jmp	0x4b5a
    4b4e:	eb 02	jmp	0x4b52
    4b50:	eb 08	jmp	0x4b5a
    4b52:	49 89 c7	movq	%rax, %r15
    4b55:	48 89 df	movq	%rbx, %rdi
    4b58:	eb 06	jmp	0x4b60
    4b5a:	49 89 c7	movq	%rax, %r15
    4b5d:	4c 89 f7	movq	%r14, %rdi
    4b60:	e8 93 3e 02 00	callq	0x289f8 ## symbol stub for: ___cxa_free_exception
    4b65:	4c 89 ff	movq	%r15, %rdi
    4b68:	e8 65 3d 02 00	callq	0x288d2 ## symbol stub for: __Unwind_Resume
    4b6d:	0f 0b	ud2
    4b6f:	90	nop
__ZN4Napi8Function3NewIPFNS_6StringERKNS_12CallbackInfoEEEES0_P10napi_env__T_PKcPv:
    4b70:	55	pushq	%rbp
    4b71:	48 89 e5	movq	%rsp, %rbp
    4b74:	41 57	pushq	%r15
    4b76:	41 56	pushq	%r14
    4b78:	41 55	pushq	%r13
    4b7a:	41 54	pushq	%r12
    4b7c:	53	pushq	%rbx
    4b7d:	48 83 ec 58	subq	$0x58, %rsp
    4b81:	49 89 cd	movq	%rcx, %r13
    4b84:	49 89 d7	movq	%rdx, %r15
    4b87:	48 89 f3	movq	%rsi, %rbx
    4b8a:	49 89 fe	movq	%rdi, %r14
    4b8d:	bf 10 00 00 00	movl	$0x10, %edi
    4b92:	e8 37 3e 02 00	callq	0x289ce ## symbol stub for: __Znwm
    4b97:	49 89 c4	movq	%rax, %r12
    4b9a:	48 89 18	movq	%rbx, (%rax)
    4b9d:	4c 89 68 08	movq	%r13, 0x8(%rax)
    4ba1:	48 8b 0d 70 74 02 00	movq	0x27470(%rip), %rcx ## literal pool symbol address: __ZN4Napi7details12CallbackDataIPFNS_6StringERKNS_12CallbackInfoEES2_E7WrapperEP10napi_env__P20napi_callback_info__
    4ba8:	4c 8d 4d d0	leaq	-0x30(%rbp), %r9
    4bac:	4c 89 f7	movq	%r14, %rdi
    4baf:	4c 89 fe	movq	%r15, %rsi
    4bb2:	48 c7 c2 ff ff ff ff	movq	$-0x1, %rdx
    4bb9:	49 89 c0	movq	%rax, %r8
    4bbc:	e8 21 3f 02 00	callq	0x28ae2 ## symbol stub for: _napi_create_function
    4bc1:	85 c0	testl	%eax, %eax
    4bc3:	0f 85 a3 00 00 00	jne	0x4c6c
    4bc9:	4c 8b 7d d0	movq	-0x30(%rbp), %r15
    4bcd:	48 8d 55 c0	leaq	-0x40(%rbp), %rdx
    4bd1:	4c 89 f7	movq	%r14, %rdi
    4bd4:	31 f6	xorl	%esi, %esi
    4bd6:	e8 1f 3f 02 00	callq	0x28afa ## symbol stub for: _napi_create_symbol
    4bdb:	85 c0	testl	%eax, %eax
    4bdd:	0f 85 89 00 00 00	jne	0x4c6c
    4be3:	48 8d 15 86 09 00 00	leaq	__ZZN4Napi7detailsL10AttachDataINS0_12CallbackDataIPFNS_6StringERKNS_12CallbackInfoEES3_EEEE11napi_statusP10napi_env__P12napi_value__PT_ENUlSC_PvSH_E_8__invokeESC_SH_SH_(%rip), %rdx ## napi_status Napi::details::AttachData<Napi::details::CallbackData<Napi::String (*)(Napi::CallbackInfo const&), Napi::String>>(napi_env__*, napi_value__*, Napi::details::CallbackData<Napi::String (*)(Napi::CallbackInfo const&), Napi::String>*)::'lambda'(napi_env__*, void*, void*)::__invoke(napi_env__*, void*, void*)
    4bea:	4c 8d 45 c8	leaq	-0x38(%rbp), %r8
    4bee:	4c 89 f7	movq	%r14, %rdi
    4bf1:	4c 89 e6	movq	%r12, %rsi
    4bf4:	31 c9	xorl	%ecx, %ecx
    4bf6:	e8 e1 3e 02 00	callq	0x28adc ## symbol stub for: _napi_create_external
    4bfb:	85 c0	testl	%eax, %eax
    4bfd:	75 6d	jne	0x4c6c
    4bff:	48 c7 45 80 00 00 00 00	movq	$0x0, -0x80(%rbp)
    4c07:	48 8b 45 c0	movq	-0x40(%rbp), %rax
    4c0b:	48 89 45 88	movq	%rax, -0x78(%rbp)
    4c0f:	48 c7 45 90 00 00 00 00	movq	$0x0, -0x70(%rbp)
    4c17:	48 c7 45 98 00 00 00 00	movq	$0x0, -0x68(%rbp)
    4c1f:	48 c7 45 a0 00 00 00 00	movq	$0x0, -0x60(%rbp)
    4c27:	48 8b 45 c8	movq	-0x38(%rbp), %rax
    4c2b:	48 89 45 a8	movq	%rax, -0x58(%rbp)
    4c2f:	c7 45 b0 00 00 00 00	movl	$0x0, -0x50(%rbp)
    4c36:	48 c7 45 b8 00 00 00 00	movq	$0x0, -0x48(%rbp)
    4c3e:	48 8d 4d 80	leaq	-0x80(%rbp), %rcx
    4c42:	ba 01 00 00 00	movl	$0x1, %edx
    4c47:	4c 89 f7	movq	%r14, %rdi
    4c4a:	4c 89 fe	movq	%r15, %rsi
    4c4d:	e8 b4 3e 02 00	callq	0x28b06 ## symbol stub for: _napi_define_properties
    4c52:	85 c0	testl	%eax, %eax
    4c54:	75 16	jne	0x4c6c
    4c56:	48 8b 55 d0	movq	-0x30(%rbp), %rdx
    4c5a:	4c 89 f0	movq	%r14, %rax
    4c5d:	48 83 c4 58	addq	$0x58, %rsp
    4c61:	5b	popq	%rbx
    4c62:	41 5c	popq	%r12
    4c64:	41 5d	popq	%r13
    4c66:	41 5e	popq	%r14
    4c68:	41 5f	popq	%r15
    4c6a:	5d	popq	%rbp
    4c6b:	c3	retq
    4c6c:	4c 89 e7	movq	%r12, %rdi
    4c6f:	e8 4e 3d 02 00	callq	0x289c2 ## symbol stub for: __ZdlPv
    4c74:	bf 38 00 00 00	movl	$0x38, %edi
    4c79:	e8 62 3d 02 00	callq	0x289e0 ## symbol stub for: ___cxa_allocate_exception
    4c7e:	48 89 c3	movq	%rax, %rbx
    4c81:	48 89 c7	movq	%rax, %rdi
    4c84:	4c 89 f6	movq	%r14, %rsi
    4c87:	e8 74 04 00 00	callq	__ZN4Napi5Error3NewEP10napi_env__ ## Napi::Error::New(napi_env__*)
    4c8c:	48 8b 35 b5 73 02 00	movq	0x273b5(%rip), %rsi ## literal pool symbol address: __ZTIN4Napi5ErrorE
    4c93:	48 8b 15 6e 73 02 00	movq	0x2736e(%rip), %rdx
    4c9a:	48 89 df	movq	%rbx, %rdi
    4c9d:	e8 5c 3d 02 00	callq	0x289fe ## symbol stub for: ___cxa_throw
    4ca2:	49 89 c6	movq	%rax, %r14
    4ca5:	48 89 df	movq	%rbx, %rdi
    4ca8:	e8 4b 3d 02 00	callq	0x289f8 ## symbol stub for: ___cxa_free_exception
    4cad:	4c 89 f7	movq	%r14, %rdi
    4cb0:	e8 1d 3c 02 00	callq	0x288d2 ## symbol stub for: __Unwind_Resume
    4cb5:	0f 0b	ud2
    4cb7:	66 0f 1f 84 00 00 00 00 00	nopw	(%rax,%rax)
__ZN4Napi8Function3NewIPFNS_5ValueERKNS_12CallbackInfoEEEES0_P10napi_env__T_PKcPv:
    4cc0:	55	pushq	%rbp
    4cc1:	48 89 e5	movq	%rsp, %rbp
    4cc4:	41 57	pushq	%r15
    4cc6:	41 56	pushq	%r14
    4cc8:	41 55	pushq	%r13
    4cca:	41 54	pushq	%r12
    4ccc:	53	pushq	%rbx
    4ccd:	48 83 ec 58	subq	$0x58, %rsp
    4cd1:	49 89 cd	movq	%rcx, %r13
    4cd4:	49 89 d7	movq	%rdx, %r15
    4cd7:	48 89 f3	movq	%rsi, %rbx
    4cda:	49 89 fe	movq	%rdi, %r14
    4cdd:	bf 10 00 00 00	movl	$0x10, %edi
    4ce2:	e8 e7 3c 02 00	callq	0x289ce ## symbol stub for: __Znwm
    4ce7:	49 89 c4	movq	%rax, %r12
    4cea:	48 89 18	movq	%rbx, (%rax)
    4ced:	4c 89 68 08	movq	%r13, 0x8(%rax)
    4cf1:	48 8b 0d 18 73 02 00	movq	0x27318(%rip), %rcx ## literal pool symbol address: __ZN4Napi7details12CallbackDataIPFNS_5ValueERKNS_12CallbackInfoEES2_E7WrapperEP10napi_env__P20napi_callback_info__
    4cf8:	4c 8d 4d d0	leaq	-0x30(%rbp), %r9
    4cfc:	4c 89 f7	movq	%r14, %rdi
    4cff:	4c 89 fe	movq	%r15, %rsi
    4d02:	48 c7 c2 ff ff ff ff	movq	$-0x1, %rdx
    4d09:	49 89 c0	movq	%rax, %r8
    4d0c:	e8 d1 3d 02 00	callq	0x28ae2 ## symbol stub for: _napi_create_function
    4d11:	85 c0	testl	%eax, %eax
    4d13:	0f 85 a3 00 00 00	jne	0x4dbc
    4d19:	4c 8b 7d d0	movq	-0x30(%rbp), %r15
    4d1d:	48 8d 55 c0	leaq	-0x40(%rbp), %rdx
    4d21:	4c 89 f7	movq	%r14, %rdi
    4d24:	31 f6	xorl	%esi, %esi
    4d26:	e8 cf 3d 02 00	callq	0x28afa ## symbol stub for: _napi_create_symbol
    4d2b:	85 c0	testl	%eax, %eax
    4d2d:	0f 85 89 00 00 00	jne	0x4dbc
    4d33:	48 8d 15 46 0a 00 00	leaq	__ZZN4Napi7detailsL10AttachDataINS0_12CallbackDataIPFNS_5ValueERKNS_12CallbackInfoEES3_EEEE11napi_statusP10napi_env__P12napi_value__PT_ENUlSC_PvSH_E_8__invokeESC_SH_SH_(%rip), %rdx ## napi_status Napi::details::AttachData<Napi::details::CallbackData<Napi::Value (*)(Napi::CallbackInfo const&), Napi::Value>>(napi_env__*, napi_value__*, Napi::details::CallbackData<Napi::Value (*)(Napi::CallbackInfo const&), Napi::Value>*)::'lambda'(napi_env__*, void*, void*)::__invoke(napi_env__*, void*, void*)
    4d3a:	4c 8d 45 c8	leaq	-0x38(%rbp), %r8
    4d3e:	4c 89 f7	movq	%r14, %rdi
    4d41:	4c 89 e6	movq	%r12, %rsi
    4d44:	31 c9	xorl	%ecx, %ecx
    4d46:	e8 91 3d 02 00	callq	0x28adc ## symbol stub for: _napi_create_external
    4d4b:	85 c0	testl	%eax, %eax
    4d4d:	75 6d	jne	0x4dbc
    4d4f:	48 c7 45 80 00 00 00 00	movq	$0x0, -0x80(%rbp)
    4d57:	48 8b 45 c0	movq	-0x40(%rbp), %rax
    4d5b:	48 89 45 88	movq	%rax, -0x78(%rbp)
    4d5f:	48 c7 45 90 00 00 00 00	movq	$0x0, -0x70(%rbp)
    4d67:	48 c7 45 98 00 00 00 00	movq	$0x0, -0x68(%rbp)
    4d6f:	48 c7 45 a0 00 00 00 00	movq	$0x0, -0x60(%rbp)
    4d77:	48 8b 45 c8	movq	-0x38(%rbp), %rax
    4d7b:	48 89 45 a8	movq	%rax, -0x58(%rbp)
    4d7f:	c7 45 b0 00 00 00 00	movl	$0x0, -0x50(%rbp)
    4d86:	48 c7 45 b8 00 00 00 00	movq	$0x0, -0x48(%rbp)
    4d8e:	48 8d 4d 80	leaq	-0x80(%rbp), %rcx
    4d92:	ba 01 00 00 00	movl	$0x1, %edx
    4d97:	4c 89 f7	movq	%r14, %rdi
    4d9a:	4c 89 fe	movq	%r15, %rsi
    4d9d:	e8 64 3d 02 00	callq	0x28b06 ## symbol stub for: _napi_define_properties
    4da2:	85 c0	testl	%eax, %eax
    4da4:	75 16	jne	0x4dbc
    4da6:	48 8b 55 d0	movq	-0x30(%rbp), %rdx
    4daa:	4c 89 f0	movq	%r14, %rax
    4dad:	48 83 c4 58	addq	$0x58, %rsp
    4db1:	5b	popq	%rbx
    4db2:	41 5c	popq	%r12
    4db4:	41 5d	popq	%r13
    4db6:	41 5e	popq	%r14
    4db8:	41 5f	popq	%r15
    4dba:	5d	popq	%rbp
    4dbb:	c3	retq
    4dbc:	4c 89 e7	movq	%r12, %rdi
    4dbf:	e8 fe 3b 02 00	callq	0x289c2 ## symbol stub for: __ZdlPv
    4dc4:	bf 38 00 00 00	movl	$0x38, %edi
    4dc9:	e8 12 3c 02 00	callq	0x289e0 ## symbol stub for: ___cxa_allocate_exception
    4dce:	48 89 c3	movq	%rax, %rbx
    4dd1:	48 89 c7	movq	%rax, %rdi
    4dd4:	4c 89 f6	movq	%r14, %rsi
    4dd7:	e8 24 03 00 00	callq	__ZN4Napi5Error3NewEP10napi_env__ ## Napi::Error::New(napi_env__*)
    4ddc:	48 8b 35 65 72 02 00	movq	0x27265(%rip), %rsi ## literal pool symbol address: __ZTIN4Napi5ErrorE
    4de3:	48 8b 15 1e 72 02 00	movq	0x2721e(%rip), %rdx
    4dea:	48 89 df	movq	%rbx, %rdi
    4ded:	e8 0c 3c 02 00	callq	0x289fe ## symbol stub for: ___cxa_throw
    4df2:	49 89 c6	movq	%rax, %r14
    4df5:	48 89 df	movq	%rbx, %rdi
    4df8:	e8 fb 3b 02 00	callq	0x289f8 ## symbol stub for: ___cxa_free_exception
    4dfd:	4c 89 f7	movq	%r14, %rdi
    4e00:	e8 cd 3a 02 00	callq	0x288d2 ## symbol stub for: __Unwind_Resume
    4e05:	0f 0b	ud2
    4e07:	66 0f 1f 84 00 00 00 00 00	nopw	(%rax,%rax)
__Z11__napi_InitP10napi_env__P12napi_value__:
    4e10:	55	pushq	%rbp
    4e11:	48 89 e5	movq	%rsp, %rbp
    4e14:	53	pushq	%rbx
    4e15:	50	pushq	%rax
    4e16:	48 89 f2	movq	%rsi, %rdx
    4e19:	48 89 fe	movq	%rdi, %rsi
    4e1c:	e8 bf fa ff ff	callq	__Z4InitN4Napi3EnvENS_6ObjectE ## Init(Napi::Env, Napi::Object)
    4e21:	48 89 d0	movq	%rdx, %rax
    4e24:	48 83 c4 08	addq	$0x8, %rsp
    4e28:	5b	popq	%rbx
    4e29:	5d	popq	%rbp
    4e2a:	c3	retq
    4e2b:	48 89 c3	movq	%rax, %rbx
    4e2e:	83 fa 01	cmpl	$0x1, %edx
    4e31:	75 26	jne	0x4e59
    4e33:	48 89 df	movq	%rbx, %rdi
    4e36:	e8 b1 3b 02 00	callq	0x289ec ## symbol stub for: ___cxa_begin_catch
    4e3b:	48 89 c7	movq	%rax, %rdi
    4e3e:	e8 1d 05 00 00	callq	__ZNK4Napi5Error26ThrowAsJavaScriptExceptionEv ## Napi::Error::ThrowAsJavaScriptException() const
    4e43:	e8 aa 3b 02 00	callq	0x289f2 ## symbol stub for: ___cxa_end_catch
    4e48:	31 c0	xorl	%eax, %eax
    4e4a:	48 83 c4 08	addq	$0x8, %rsp
    4e4e:	5b	popq	%rbx
    4e4f:	5d	popq	%rbp
    4e50:	c3	retq
    4e51:	48 89 c3	movq	%rax, %rbx
    4e54:	e8 99 3b 02 00	callq	0x289f2 ## symbol stub for: ___cxa_end_catch
    4e59:	48 89 df	movq	%rbx, %rdi
    4e5c:	e8 71 3a 02 00	callq	0x288d2 ## symbol stub for: __Unwind_Resume
    4e61:	0f 0b	ud2
    4e63:	48 89 c7	movq	%rax, %rdi
    4e66:	e8 65 d5 ff ff	callq	___clang_call_terminate
    4e6b:	0f 1f 44 00 00	nopl	(%rax,%rax)
__ZL15_register_addonv:
    4e70:	55	pushq	%rbp
    4e71:	48 89 e5	movq	%rsp, %rbp
    4e74:	48 8d 3d c5 b5 02 00	leaq	__ZL7_module(%rip), %rdi ## _module
    4e7b:	5d	popq	%rbp
    4e7c:	e9 e5 3c 02 00	jmp	0x28b66 ## symbol stub for: _napi_module_register
    4e81:	66 2e 0f 1f 84 00 00 00 00 00	nopw	%cs:(%rax,%rax)
    4e8b:	0f 1f 44 00 00	nopl	(%rax,%rax)
__ZN4Napi5ErrorD1Ev:
    4e90:	55	pushq	%rbp
    4e91:	48 89 e5	movq	%rsp, %rbp
    4e94:	53	pushq	%rbx
    4e95:	50	pushq	%rax
    4e96:	48 89 fb	movq	%rdi, %rbx
    4e99:	48 8b 05 d0 71 02 00	movq	0x271d0(%rip), %rax
    4ea0:	48 83 c0 10	addq	$0x10, %rax
    4ea4:	48 89 07	movq	%rax, (%rdi)
    4ea7:	f6 47 20 01	testb	$0x1, 0x20(%rdi)
    4eab:	74 09	je	0x4eb6
    4ead:	48 8b 7b 30	movq	0x30(%rbx), %rdi
    4eb1:	e8 0c 3b 02 00	callq	0x289c2 ## symbol stub for: __ZdlPv
    4eb6:	48 89 df	movq	%rbx, %rdi
    4eb9:	e8 ec 3a 02 00	callq	0x289aa ## symbol stub for: __ZNSt9exceptionD2Ev
    4ebe:	48 8b 73 10	movq	0x10(%rbx), %rsi
    4ec2:	48 85 f6	testq	%rsi, %rsi
    4ec5:	74 17	je	0x4ede
    4ec7:	80 7b 18 00	cmpb	$0x0, 0x18(%rbx)
    4ecb:	75 09	jne	0x4ed6
    4ecd:	48 8b 7b 08	movq	0x8(%rbx), %rdi
    4ed1:	e8 36 3c 02 00	callq	0x28b0c ## symbol stub for: _napi_delete_reference
    4ed6:	48 c7 43 10 00 00 00 00	movq	$0x0, 0x10(%rbx)
    4ede:	48 83 c4 08	addq	$0x8, %rsp
    4ee2:	5b	popq	%rbx
    4ee3:	5d	popq	%rbp
    4ee4:	c3	retq
    4ee5:	48 89 c7	movq	%rax, %rdi
    4ee8:	e8 e3 d4 ff ff	callq	___clang_call_terminate
    4eed:	0f 1f 00	nopl	(%rax)
__ZN4Napi5ErrorD0Ev:
    4ef0:	55	pushq	%rbp
    4ef1:	48 89 e5	movq	%rsp, %rbp
    4ef4:	53	pushq	%rbx
    4ef5:	50	pushq	%rax
    4ef6:	48 89 fb	movq	%rdi, %rbx
    4ef9:	48 8b 05 70 71 02 00	movq	0x27170(%rip), %rax
    4f00:	48 83 c0 10	addq	$0x10, %rax
    4f04:	48 89 07	movq	%rax, (%rdi)
    4f07:	f6 47 20 01	testb	$0x1, 0x20(%rdi)
    4f0b:	74 09	je	0x4f16
    4f0d:	48 8b 7b 30	movq	0x30(%rbx), %rdi
    4f11:	e8 ac 3a 02 00	callq	0x289c2 ## symbol stub for: __ZdlPv
    4f16:	48 89 df	movq	%rbx, %rdi
    4f19:	e8 8c 3a 02 00	callq	0x289aa ## symbol stub for: __ZNSt9exceptionD2Ev
    4f1e:	48 8b 73 10	movq	0x10(%rbx), %rsi
    4f22:	48 85 f6	testq	%rsi, %rsi
    4f25:	74 0f	je	0x4f36
    4f27:	80 7b 18 00	cmpb	$0x0, 0x18(%rbx)
    4f2b:	75 09	jne	0x4f36
    4f2d:	48 8b 7b 08	movq	0x8(%rbx), %rdi
    4f31:	e8 d6 3b 02 00	callq	0x28b0c ## symbol stub for: _napi_delete_reference
    4f36:	48 89 df	movq	%rbx, %rdi
    4f39:	48 83 c4 08	addq	$0x8, %rsp
    4f3d:	5b	popq	%rbx
    4f3e:	5d	popq	%rbp
    4f3f:	e9 7e 3a 02 00	jmp	0x289c2 ## symbol stub for: __ZdlPv
    4f44:	48 89 c7	movq	%rax, %rdi
    4f47:	e8 84 d4 ff ff	callq	___clang_call_terminate
    4f4c:	0f 1f 40 00	nopl	(%rax)
__ZNK4Napi15ObjectReference3GetEPKc:
    4f50:	55	pushq	%rbp
    4f51:	48 89 e5	movq	%rsp, %rbp
    4f54:	41 56	pushq	%r14
    4f56:	53	pushq	%rbx
    4f57:	48 83 ec 20	subq	$0x20, %rsp
    4f5b:	49 89 f6	movq	%rsi, %r14
    4f5e:	48 89 fb	movq	%rdi, %rbx
    4f61:	48 8b 3f	movq	(%rdi), %rdi
    4f64:	48 89 7d d8	movq	%rdi, -0x28(%rbp)
    4f68:	48 8d 75 e0	leaq	-0x20(%rbp), %rsi
    4f6c:	e8 fb 3b 02 00	callq	0x28b6c ## symbol stub for: _napi_open_escapable_handle_scope
    4f71:	85 c0	testl	%eax, %eax
    4f73:	75 7e	jne	0x4ff3
    4f75:	48 8b 73 08	movq	0x8(%rbx), %rsi
    4f79:	48 85 f6	testq	%rsi, %rsi
    4f7c:	74 1d	je	0x4f9b
    4f7e:	48 8b 3b	movq	(%rbx), %rdi
    4f81:	48 8d 55 e8	leaq	-0x18(%rbp), %rdx
    4f85:	e8 b8 3b 02 00	callq	0x28b42 ## symbol stub for: _napi_get_reference_value
    4f8a:	85 c0	testl	%eax, %eax
    4f8c:	0f 85 f1 00 00 00	jne	0x5083
    4f92:	48 8b 1b	movq	(%rbx), %rbx
    4f95:	48 8b 75 e8	movq	-0x18(%rbp), %rsi
    4f99:	eb 05	jmp	0x4fa0
    4f9b:	48 8b 1b	movq	(%rbx), %rbx
    4f9e:	31 f6	xorl	%esi, %esi
    4fa0:	48 8d 4d e8	leaq	-0x18(%rbp), %rcx
    4fa4:	48 89 df	movq	%rbx, %rdi
    4fa7:	4c 89 f2	movq	%r14, %rdx
    4faa:	e8 8d 3b 02 00	callq	0x28b3c ## symbol stub for: _napi_get_named_property
    4faf:	85 c0	testl	%eax, %eax
    4fb1:	75 6f	jne	0x5022
    4fb3:	48 8b 55 e8	movq	-0x18(%rbp), %rdx
    4fb7:	48 8b 7d d8	movq	-0x28(%rbp), %rdi
    4fbb:	48 8b 75 e0	movq	-0x20(%rbp), %rsi
    4fbf:	48 8d 4d e8	leaq	-0x18(%rbp), %rcx
    4fc3:	e8 4a 3b 02 00	callq	0x28b12 ## symbol stub for: _napi_escape_handle
    4fc8:	85 c0	testl	%eax, %eax
    4fca:	0f 85 82 00 00 00	jne	0x5052
    4fd0:	48 8b 5d d8	movq	-0x28(%rbp), %rbx
    4fd4:	48 8b 75 e0	movq	-0x20(%rbp), %rsi
    4fd8:	4c 8b 75 e8	movq	-0x18(%rbp), %r14
    4fdc:	48 89 df	movq	%rbx, %rdi
    4fdf:	e8 d4 3a 02 00	callq	0x28ab8 ## symbol stub for: _napi_close_escapable_handle_scope
    4fe4:	48 89 d8	movq	%rbx, %rax
    4fe7:	4c 89 f2	movq	%r14, %rdx
    4fea:	48 83 c4 20	addq	$0x20, %rsp
    4fee:	5b	popq	%rbx
    4fef:	41 5e	popq	%r14
    4ff1:	5d	popq	%rbp
    4ff2:	c3	retq
    4ff3:	bf 38 00 00 00	movl	$0x38, %edi
    4ff8:	e8 e3 39 02 00	callq	0x289e0 ## symbol stub for: ___cxa_allocate_exception
    4ffd:	49 89 c6	movq	%rax, %r14
    5000:	48 8b 75 d8	movq	-0x28(%rbp), %rsi
    5004:	48 89 c7	movq	%rax, %rdi
    5007:	e8 f4 00 00 00	callq	__ZN4Napi5Error3NewEP10napi_env__ ## Napi::Error::New(napi_env__*)
    500c:	48 8b 35 35 70 02 00	movq	0x27035(%rip), %rsi ## literal pool symbol address: __ZTIN4Napi5ErrorE
    5013:	48 8b 15 ee 6f 02 00	movq	0x26fee(%rip), %rdx
    501a:	4c 89 f7	movq	%r14, %rdi
    501d:	e8 dc 39 02 00	callq	0x289fe ## symbol stub for: ___cxa_throw
    5022:	bf 38 00 00 00	movl	$0x38, %edi
    5027:	e8 b4 39 02 00	callq	0x289e0 ## symbol stub for: ___cxa_allocate_exception
    502c:	49 89 c6	movq	%rax, %r14
    502f:	48 89 c7	movq	%rax, %rdi
    5032:	48 89 de	movq	%rbx, %rsi
    5035:	e8 c6 00 00 00	callq	__ZN4Napi5Error3NewEP10napi_env__ ## Napi::Error::New(napi_env__*)
    503a:	48 8b 35 07 70 02 00	movq	0x27007(%rip), %rsi ## literal pool symbol address: __ZTIN4Napi5ErrorE
    5041:	48 8b 15 c0 6f 02 00	movq	0x26fc0(%rip), %rdx
    5048:	4c 89 f7	movq	%r14, %rdi
    504b:	e8 ae 39 02 00	callq	0x289fe ## symbol stub for: ___cxa_throw
    5050:	eb 5f	jmp	0x50b1
    5052:	bf 38 00 00 00	movl	$0x38, %edi
    5057:	e8 84 39 02 00	callq	0x289e0 ## symbol stub for: ___cxa_allocate_exception
    505c:	49 89 c6	movq	%rax, %r14
    505f:	48 8b 75 d8	movq	-0x28(%rbp), %rsi
    5063:	48 89 c7	movq	%rax, %rdi
    5066:	e8 95 00 00 00	callq	__ZN4Napi5Error3NewEP10napi_env__ ## Napi::Error::New(napi_env__*)
    506b:	48 8b 35 d6 6f 02 00	movq	0x26fd6(%rip), %rsi ## literal pool symbol address: __ZTIN4Napi5ErrorE
    5072:	48 8b 15 8f 6f 02 00	movq	0x26f8f(%rip), %rdx
    5079:	4c 89 f7	movq	%r14, %rdi
    507c:	e8 7d 39 02 00	callq	0x289fe ## symbol stub for: ___cxa_throw
    5081:	eb 2e	jmp	0x50b1
    5083:	bf 38 00 00 00	movl	$0x38, %edi
    5088:	e8 53 39 02 00	callq	0x289e0 ## symbol stub for: ___cxa_allocate_exception
    508d:	49 89 c6	movq	%rax, %r14
    5090:	48 8b 33	movq	(%rbx), %rsi
    5093:	48 89 c7	movq	%rax, %rdi
    5096:	e8 65 00 00 00	callq	__ZN4Napi5Error3NewEP10napi_env__ ## Napi::Error::New(napi_env__*)
    509b:	48 8b 35 a6 6f 02 00	movq	0x26fa6(%rip), %rsi ## literal pool symbol address: __ZTIN4Napi5ErrorE
    50a2:	48 8b 15 5f 6f 02 00	movq	0x26f5f(%rip), %rdx
    50a9:	4c 89 f7	movq	%r14, %rdi
    50ac:	e8 4d 39 02 00	callq	0x289fe ## symbol stub for: ___cxa_throw
    50b1:	0f 0b	ud2
    50b3:	eb 02	jmp	0x50b7
    50b5:	eb 00	jmp	0x50b7
    50b7:	48 89 c3	movq	%rax, %rbx
    50ba:	4c 89 f7	movq	%r14, %rdi
    50bd:	e8 36 39 02 00	callq	0x289f8 ## symbol stub for: ___cxa_free_exception
    50c2:	eb 18	jmp	0x50dc
    50c4:	48 89 c3	movq	%rax, %rbx
    50c7:	4c 89 f7	movq	%r14, %rdi
    50ca:	e8 29 39 02 00	callq	0x289f8 ## symbol stub for: ___cxa_free_exception
    50cf:	eb 18	jmp	0x50e9
    50d1:	48 89 c7	movq	%rax, %rdi
    50d4:	e8 f7 d2 ff ff	callq	___clang_call_terminate
    50d9:	48 89 c3	movq	%rax, %rbx
    50dc:	48 8b 7d d8	movq	-0x28(%rbp), %rdi
    50e0:	48 8b 75 e0	movq	-0x20(%rbp), %rsi
    50e4:	e8 cf 39 02 00	callq	0x28ab8 ## symbol stub for: _napi_close_escapable_handle_scope
    50e9:	48 89 df	movq	%rbx, %rdi
    50ec:	e8 e1 37 02 00	callq	0x288d2 ## symbol stub for: __Unwind_Resume
    50f1:	0f 0b	ud2
    50f3:	48 89 c7	movq	%rax, %rdi
    50f6:	e8 d5 d2 ff ff	callq	___clang_call_terminate
    50fb:	0f 1f 44 00 00	nopl	(%rax,%rax)
__ZN4Napi5Error3NewEP10napi_env__:
    5100:	55	pushq	%rbp
    5101:	48 89 e5	movq	%rsp, %rbp
    5104:	41 57	pushq	%r15
    5106:	41 56	pushq	%r14
    5108:	41 54	pushq	%r12
    510a:	53	pushq	%rbx
    510b:	48 83 ec 20	subq	$0x20, %rsp
    510f:	49 89 f6	movq	%rsi, %r14
    5112:	48 89 fb	movq	%rdi, %rbx
    5115:	48 c7 45 d0 00 00 00 00	movq	$0x0, -0x30(%rbp)
    511d:	48 8d 75 c0	leaq	-0x40(%rbp), %rsi
    5121:	4c 89 f7	movq	%r14, %rdi
    5124:	e8 0d 3a 02 00	callq	0x28b36 ## symbol stub for: _napi_get_last_error_info
    5129:	85 c0	testl	%eax, %eax
    512b:	0f 85 54 01 00 00	jne	0x5285
    5131:	48 8b 45 c0	movq	-0x40(%rbp), %rax
    5135:	83 78 14 0a	cmpl	$0xa, 0x14(%rax)
    5139:	75 19	jne	0x5154
    513b:	48 8d 75 d0	leaq	-0x30(%rbp), %rsi
    513f:	4c 89 f7	movq	%r14, %rdi
    5142:	e8 d7 39 02 00	callq	0x28b1e ## symbol stub for: _napi_get_and_clear_last_exception
    5147:	85 c0	testl	%eax, %eax
    5149:	0f 84 9e 00 00 00	je	0x51ed
    514f:	e9 44 01 00 00	jmp	0x5298
    5154:	48 8b 00	movq	(%rax), %rax
    5157:	48 85 c0	testq	%rax, %rax
    515a:	4c 8d 3d 01 5d 02 00	leaq	0x25d01(%rip), %r15 ## literal pool for: "Error in native callback"
    5161:	4c 0f 45 f8	cmovneq	%rax, %r15
    5165:	48 8d 75 df	leaq	-0x21(%rbp), %rsi
    5169:	4c 89 f7	movq	%r14, %rdi
    516c:	e8 ef 39 02 00	callq	0x28b60 ## symbol stub for: _napi_is_exception_pending
    5171:	85 c0	testl	%eax, %eax
    5173:	0f 85 47 01 00 00	jne	0x52c0
    5179:	80 7d df 00	cmpb	$0x0, -0x21(%rbp)
    517d:	74 14	je	0x5193
    517f:	48 8d 75 d0	leaq	-0x30(%rbp), %rsi
    5183:	4c 89 f7	movq	%r14, %rdi
    5186:	e8 93 39 02 00	callq	0x28b1e ## symbol stub for: _napi_get_and_clear_last_exception
    518b:	85 c0	testl	%eax, %eax
    518d:	0f 85 05 01 00 00	jne	0x5298
    5193:	4c 89 ff	movq	%r15, %rdi
    5196:	e8 37 3a 02 00	callq	0x28bd2 ## symbol stub for: _strlen
    519b:	48 8d 4d c8	leaq	-0x38(%rbp), %rcx
    519f:	4c 89 f7	movq	%r14, %rdi
    51a2:	4c 89 fe	movq	%r15, %rsi
    51a5:	48 89 c2	movq	%rax, %rdx
    51a8:	e8 47 39 02 00	callq	0x28af4 ## symbol stub for: _napi_create_string_utf8
    51ad:	85 c0	testl	%eax, %eax
    51af:	0f 85 1e 01 00 00	jne	0x52d3
    51b5:	48 8b 45 c0	movq	-0x40(%rbp), %rax
    51b9:	8b 40 14	movl	0x14(%rax), %eax
    51bc:	83 f8 07	cmpl	$0x7, %eax
    51bf:	0f 87 93 00 00 00	ja	0x5258
    51c5:	b9 cc 00 00 00	movl	$0xcc, %ecx
    51ca:	0f a3 c1	btl	%eax, %ecx
    51cd:	0f 83 85 00 00 00	jae	0x5258
    51d3:	48 8b 55 c8	movq	-0x38(%rbp), %rdx
    51d7:	48 8d 4d d0	leaq	-0x30(%rbp), %rcx
    51db:	4c 89 f7	movq	%r14, %rdi
    51de:	31 f6	xorl	%esi, %esi
    51e0:	e8 1b 39 02 00	callq	0x28b00 ## symbol stub for: _napi_create_type_error
    51e5:	85 c0	testl	%eax, %eax
    51e7:	0f 85 85 00 00 00	jne	0x5272
    51ed:	48 8b 75 d0	movq	-0x30(%rbp), %rsi
    51f1:	4c 89 73 08	movq	%r14, 0x8(%rbx)
    51f5:	48 c7 43 10 00 00 00 00	movq	$0x0, 0x10(%rbx)
    51fd:	c6 43 18 00	movb	$0x0, 0x18(%rbx)
    5201:	48 8b 05 68 6e 02 00	movq	0x26e68(%rip), %rax
    5208:	48 83 c0 10	addq	$0x10, %rax
    520c:	48 89 03	movq	%rax, (%rbx)
    520f:	48 c7 43 20 00 00 00 00	movq	$0x0, 0x20(%rbx)
    5217:	48 c7 43 28 00 00 00 00	movq	$0x0, 0x28(%rbx)
    521f:	48 c7 43 30 00 00 00 00	movq	$0x0, 0x30(%rbx)
    5227:	48 85 f6	testq	%rsi, %rsi
    522a:	74 1c	je	0x5248
    522c:	4c 8d 7b 10	leaq	0x10(%rbx), %r15
    5230:	4c 8d 63 20	leaq	0x20(%rbx), %r12
    5234:	4c 89 f7	movq	%r14, %rdi
    5237:	ba 01 00 00 00	movl	$0x1, %edx
    523c:	4c 89 f9	movq	%r15, %rcx
    523f:	e8 aa 38 02 00	callq	0x28aee ## symbol stub for: _napi_create_reference
    5244:	85 c0	testl	%eax, %eax
    5246:	75 63	jne	0x52ab
    5248:	48 89 d8	movq	%rbx, %rax
    524b:	48 83 c4 20	addq	$0x20, %rsp
    524f:	5b	popq	%rbx
    5250:	41 5c	popq	%r12
    5252:	41 5e	popq	%r14
    5254:	41 5f	popq	%r15
    5256:	5d	popq	%rbp
    5257:	c3	retq
    5258:	48 8b 55 c8	movq	-0x38(%rbp), %rdx
    525c:	48 8d 4d d0	leaq	-0x30(%rbp), %rcx
    5260:	4c 89 f7	movq	%r14, %rdi
    5263:	31 f6	xorl	%esi, %esi
    5265:	e8 6c 38 02 00	callq	0x28ad6 ## symbol stub for: _napi_create_error
    526a:	85 c0	testl	%eax, %eax
    526c:	0f 84 7b ff ff ff	je	0x51ed
    5272:	48 8d 3d a3 5b 02 00	leaq	0x25ba3(%rip), %rdi ## literal pool for: "Error::New"
    5279:	48 8d 35 2d 5c 02 00	leaq	0x25c2d(%rip), %rsi ## literal pool for: "napi_create_error"
    5280:	e8 bb 00 00 00	callq	__ZN4Napi5Error5FatalEPKcS2_ ## Napi::Error::Fatal(char const*, char const*)
    5285:	48 8d 3d 90 5b 02 00	leaq	0x25b90(%rip), %rdi ## literal pool for: "Error::New"
    528c:	48 8d 35 94 5b 02 00	leaq	0x25b94(%rip), %rsi ## literal pool for: "napi_get_last_error_info"
    5293:	e8 a8 00 00 00	callq	__ZN4Napi5Error5FatalEPKcS2_ ## Napi::Error::Fatal(char const*, char const*)
    5298:	48 8d 3d 7d 5b 02 00	leaq	0x25b7d(%rip), %rdi ## literal pool for: "Error::New"
    529f:	48 8d 35 9a 5b 02 00	leaq	0x25b9a(%rip), %rsi ## literal pool for: "napi_get_and_clear_last_exception"
    52a6:	e8 95 00 00 00	callq	__ZN4Napi5Error5FatalEPKcS2_ ## Napi::Error::Fatal(char const*, char const*)
    52ab:	48 8d 3d 0d 5c 02 00	leaq	0x25c0d(%rip), %rdi ## literal pool for: "Error::Error"
    52b2:	48 8d 35 13 5c 02 00	leaq	0x25c13(%rip), %rsi ## literal pool for: "napi_create_reference"
    52b9:	e8 82 00 00 00	callq	__ZN4Napi5Error5FatalEPKcS2_ ## Napi::Error::Fatal(char const*, char const*)
    52be:	0f 0b	ud2
    52c0:	48 8d 3d 55 5b 02 00	leaq	0x25b55(%rip), %rdi ## literal pool for: "Error::New"
    52c7:	48 8d 35 ad 5b 02 00	leaq	0x25bad(%rip), %rsi ## literal pool for: "napi_is_exception_pending"
    52ce:	e8 6d 00 00 00	callq	__ZN4Napi5Error5FatalEPKcS2_ ## Napi::Error::Fatal(char const*, char const*)
    52d3:	48 8d 3d 42 5b 02 00	leaq	0x25b42(%rip), %rdi ## literal pool for: "Error::New"
    52da:	48 8d 35 b4 5b 02 00	leaq	0x25bb4(%rip), %rsi ## literal pool for: "napi_create_string_utf8"
    52e1:	e8 5a 00 00 00	callq	__ZN4Napi5Error5FatalEPKcS2_ ## Napi::Error::Fatal(char const*, char const*)
    52e6:	49 89 c6	movq	%rax, %r14
    52e9:	41 f6 04 24 01	testb	$0x1, (%r12)
    52ee:	74 09	je	0x52f9
    52f0:	48 8b 7b 30	movq	0x30(%rbx), %rdi
    52f4:	e8 c9 36 02 00	callq	0x289c2 ## symbol stub for: __ZdlPv
    52f9:	48 89 df	movq	%rbx, %rdi
    52fc:	e8 a9 36 02 00	callq	0x289aa ## symbol stub for: __ZNSt9exceptionD2Ev
    5301:	48 8b 73 10	movq	0x10(%rbx), %rsi
    5305:	48 85 f6	testq	%rsi, %rsi
    5308:	74 16	je	0x5320
    530a:	80 7b 18 00	cmpb	$0x0, 0x18(%rbx)
    530e:	75 09	jne	0x5319
    5310:	48 8b 7b 08	movq	0x8(%rbx), %rdi
    5314:	e8 f3 37 02 00	callq	0x28b0c ## symbol stub for: _napi_delete_reference
    5319:	49 c7 07 00 00 00 00	movq	$0x0, (%r15)
    5320:	4c 89 f7	movq	%r14, %rdi
    5323:	e8 aa 35 02 00	callq	0x288d2 ## symbol stub for: __Unwind_Resume
    5328:	0f 0b	ud2
    532a:	48 89 c7	movq	%rax, %rdi
    532d:	e8 9e d0 ff ff	callq	___clang_call_terminate
    5332:	66 2e 0f 1f 84 00 00 00 00 00	nopw	%cs:(%rax,%rax)
    533c:	0f 1f 40 00	nopl	(%rax)
__ZN4Napi5Error5FatalEPKcS2_:
    5340:	55	pushq	%rbp
    5341:	48 89 e5	movq	%rsp, %rbp
    5344:	48 89 f2	movq	%rsi, %rdx
    5347:	48 c7 c6 ff ff ff ff	movq	$-0x1, %rsi
    534e:	48 c7 c1 ff ff ff ff	movq	$-0x1, %rcx
    5355:	e8 be 37 02 00	callq	0x28b18 ## symbol stub for: _napi_fatal_error
    535a:	66 0f 1f 44 00 00	nopw	(%rax,%rax)
__ZNK4Napi5Error26ThrowAsJavaScriptExceptionEv:
    5360:	55	pushq	%rbp
    5361:	48 89 e5	movq	%rsp, %rbp
    5364:	41 57	pushq	%r15
    5366:	41 56	pushq	%r14
    5368:	53	pushq	%rbx
    5369:	48 83 ec 18	subq	$0x18, %rsp
    536d:	49 89 ff	movq	%rdi, %r15
    5370:	48 8b 7f 08	movq	0x8(%rdi), %rdi
    5374:	48 89 7d d8	movq	%rdi, -0x28(%rbp)
    5378:	48 8d 75 e0	leaq	-0x20(%rbp), %rsi
    537c:	e8 f1 37 02 00	callq	0x28b72 ## symbol stub for: _napi_open_handle_scope
    5381:	85 c0	testl	%eax, %eax
    5383:	75 45	jne	0x53ca
    5385:	49 8b 77 10	movq	0x10(%r15), %rsi
    5389:	48 85 f6	testq	%rsi, %rsi
    538c:	74 24	je	0x53b2
    538e:	49 8b 5f 08	movq	0x8(%r15), %rbx
    5392:	48 8d 55 d0	leaq	-0x30(%rbp), %rdx
    5396:	48 89 df	movq	%rbx, %rdi
    5399:	e8 a4 37 02 00	callq	0x28b42 ## symbol stub for: _napi_get_reference_value
    539e:	85 c0	testl	%eax, %eax
    53a0:	75 57	jne	0x53f9
    53a2:	48 8b 75 d0	movq	-0x30(%rbp), %rsi
    53a6:	48 89 df	movq	%rbx, %rdi
    53a9:	e8 dc 37 02 00	callq	0x28b8a ## symbol stub for: _napi_throw
    53ae:	85 c0	testl	%eax, %eax
    53b0:	75 78	jne	0x542a
    53b2:	48 8b 7d d8	movq	-0x28(%rbp), %rdi
    53b6:	48 8b 75 e0	movq	-0x20(%rbp), %rsi
    53ba:	e8 ff 36 02 00	callq	0x28abe ## symbol stub for: _napi_close_handle_scope
    53bf:	48 83 c4 18	addq	$0x18, %rsp
    53c3:	5b	popq	%rbx
    53c4:	41 5e	popq	%r14
    53c6:	41 5f	popq	%r15
    53c8:	5d	popq	%rbp
    53c9:	c3	retq
    53ca:	bf 38 00 00 00	movl	$0x38, %edi
    53cf:	e8 0c 36 02 00	callq	0x289e0 ## symbol stub for: ___cxa_allocate_exception
    53d4:	49 89 c6	movq	%rax, %r14
    53d7:	48 8b 75 d8	movq	-0x28(%rbp), %rsi
    53db:	48 89 c7	movq	%rax, %rdi
    53de:	e8 1d fd ff ff	callq	__ZN4Napi5Error3NewEP10napi_env__ ## Napi::Error::New(napi_env__*)
    53e3:	48 8b 35 5e 6c 02 00	movq	0x26c5e(%rip), %rsi ## literal pool symbol address: __ZTIN4Napi5ErrorE
    53ea:	48 8b 15 17 6c 02 00	movq	0x26c17(%rip), %rdx
    53f1:	4c 89 f7	movq	%r14, %rdi
    53f4:	e8 05 36 02 00	callq	0x289fe ## symbol stub for: ___cxa_throw
    53f9:	bf 38 00 00 00	movl	$0x38, %edi
    53fe:	e8 dd 35 02 00	callq	0x289e0 ## symbol stub for: ___cxa_allocate_exception
    5403:	49 89 c6	movq	%rax, %r14
    5406:	49 8b 77 08	movq	0x8(%r15), %rsi
    540a:	48 89 c7	movq	%rax, %rdi
    540d:	e8 ee fc ff ff	callq	__ZN4Napi5Error3NewEP10napi_env__ ## Napi::Error::New(napi_env__*)
    5412:	48 8b 35 2f 6c 02 00	movq	0x26c2f(%rip), %rsi ## literal pool symbol address: __ZTIN4Napi5ErrorE
    5419:	48 8b 15 e8 6b 02 00	movq	0x26be8(%rip), %rdx
    5420:	4c 89 f7	movq	%r14, %rdi
    5423:	e8 d6 35 02 00	callq	0x289fe ## symbol stub for: ___cxa_throw
    5428:	eb 2f	jmp	0x5459
    542a:	bf 38 00 00 00	movl	$0x38, %edi
    542f:	e8 ac 35 02 00	callq	0x289e0 ## symbol stub for: ___cxa_allocate_exception
    5434:	49 89 c6	movq	%rax, %r14
    5437:	49 8b 77 08	movq	0x8(%r15), %rsi
    543b:	48 89 c7	movq	%rax, %rdi
    543e:	e8 bd fc ff ff	callq	__ZN4Napi5Error3NewEP10napi_env__ ## Napi::Error::New(napi_env__*)
    5443:	48 8b 35 fe 6b 02 00	movq	0x26bfe(%rip), %rsi ## literal pool symbol address: __ZTIN4Napi5ErrorE
    544a:	48 8b 15 b7 6b 02 00	movq	0x26bb7(%rip), %rdx
    5451:	4c 89 f7	movq	%r14, %rdi
    5454:	e8 a5 35 02 00	callq	0x289fe ## symbol stub for: ___cxa_throw
    5459:	0f 0b	ud2
    545b:	eb 24	jmp	0x5481
    545d:	eb 00	jmp	0x545f
    545f:	48 89 c3	movq	%rax, %rbx
    5462:	4c 89 f7	movq	%r14, %rdi
    5465:	e8 8e 35 02 00	callq	0x289f8 ## symbol stub for: ___cxa_free_exception
    546a:	eb 18	jmp	0x5484
    546c:	48 89 c3	movq	%rax, %rbx
    546f:	4c 89 f7	movq	%r14, %rdi
    5472:	e8 81 35 02 00	callq	0x289f8 ## symbol stub for: ___cxa_free_exception
    5477:	eb 18	jmp	0x5491
    5479:	48 89 c7	movq	%rax, %rdi
    547c:	e8 4f cf ff ff	callq	___clang_call_terminate
    5481:	48 89 c3	movq	%rax, %rbx
    5484:	48 8b 7d d8	movq	-0x28(%rbp), %rdi
    5488:	48 8b 75 e0	movq	-0x20(%rbp), %rsi
    548c:	e8 2d 36 02 00	callq	0x28abe ## symbol stub for: _napi_close_handle_scope
    5491:	48 89 df	movq	%rbx, %rdi
    5494:	e8 39 34 02 00	callq	0x288d2 ## symbol stub for: __Unwind_Resume
    5499:	0f 0b	ud2
    549b:	48 89 c7	movq	%rax, %rdi
    549e:	e8 2d cf ff ff	callq	___clang_call_terminate
    54a3:	66 2e 0f 1f 84 00 00 00 00 00	nopw	%cs:(%rax,%rax)
    54ad:	0f 1f 00	nopl	(%rax)
__ZN4Napi7details14vf_utf8_string4FromEP10napi_env__RKNSt3__112basic_stringIcNS4_11char_traitsIcEENS4_9allocatorIcEEEE:
    54b0:	55	pushq	%rbp
    54b1:	48 89 e5	movq	%rsp, %rbp
    54b4:	41 56	pushq	%r14
    54b6:	53	pushq	%rbx
    54b7:	48 83 ec 10	subq	$0x10, %rsp
    54bb:	48 89 fb	movq	%rdi, %rbx
    54be:	0f b6 16	movzbl	(%rsi), %edx
    54c1:	f6 c2 01	testb	$0x1, %dl
    54c4:	74 0a	je	0x54d0
    54c6:	48 8b 56 08	movq	0x8(%rsi), %rdx
    54ca:	48 8b 76 10	movq	0x10(%rsi), %rsi
    54ce:	eb 06	jmp	0x54d6
    54d0:	48 ff c6	incq	%rsi
    54d3:	48 d1 ea	shrq	%rdx
    54d6:	48 8d 4d e8	leaq	-0x18(%rbp), %rcx
    54da:	48 89 df	movq	%rbx, %rdi
    54dd:	e8 12 36 02 00	callq	0x28af4 ## symbol stub for: _napi_create_string_utf8
    54e2:	85 c0	testl	%eax, %eax
    54e4:	75 10	jne	0x54f6
    54e6:	48 8b 55 e8	movq	-0x18(%rbp), %rdx
    54ea:	48 89 d8	movq	%rbx, %rax
    54ed:	48 83 c4 10	addq	$0x10, %rsp
    54f1:	5b	popq	%rbx
    54f2:	41 5e	popq	%r14
    54f4:	5d	popq	%rbp
    54f5:	c3	retq
    54f6:	bf 38 00 00 00	movl	$0x38, %edi
    54fb:	e8 e0 34 02 00	callq	0x289e0 ## symbol stub for: ___cxa_allocate_exception
    5500:	49 89 c6	movq	%rax, %r14
    5503:	48 89 c7	movq	%rax, %rdi
    5506:	48 89 de	movq	%rbx, %rsi
    5509:	e8 f2 fb ff ff	callq	__ZN4Napi5Error3NewEP10napi_env__ ## Napi::Error::New(napi_env__*)
    550e:	48 8b 35 33 6b 02 00	movq	0x26b33(%rip), %rsi ## literal pool symbol address: __ZTIN4Napi5ErrorE
    5515:	48 8b 15 ec 6a 02 00	movq	0x26aec(%rip), %rdx
    551c:	4c 89 f7	movq	%r14, %rdi
    551f:	e8 da 34 02 00	callq	0x289fe ## symbol stub for: ___cxa_throw
    5524:	48 89 c3	movq	%rax, %rbx
    5527:	4c 89 f7	movq	%r14, %rdi
    552a:	e8 c9 34 02 00	callq	0x289f8 ## symbol stub for: ___cxa_free_exception
    552f:	48 89 df	movq	%rbx, %rdi
    5532:	e8 9b 33 02 00	callq	0x288d2 ## symbol stub for: __Unwind_Resume
    5537:	0f 0b	ud2
    5539:	0f 1f 80 00 00 00 00	nopl	(%rax)
__ZN4Napi7details12CallbackDataIPFNS_6StringERKNS_12CallbackInfoEES2_E7WrapperEP10napi_env__P20napi_callback_info__:
    5540:	55	pushq	%rbp
    5541:	48 89 e5	movq	%rsp, %rbp
    5544:	48 83 ec 10	subq	$0x10, %rsp
    5548:	48 89 7d f0	movq	%rdi, -0x10(%rbp)
    554c:	48 89 75 f8	movq	%rsi, -0x8(%rbp)
    5550:	48 8d 7d f0	leaq	-0x10(%rbp), %rdi
    5554:	48 8d 75 f8	leaq	-0x8(%rbp), %rsi
    5558:	e8 33 00 00 00	callq	__ZN4Napi7details12WrapCallbackIZNS0_12CallbackDataIPFNS_6StringERKNS_12CallbackInfoEES3_E7WrapperEP10napi_env__P20napi_callback_info__EUlvE_EEP12napi_value__T_ ## napi_value__* Napi::details::WrapCallback<Napi::details::CallbackData<Napi::String (*)(Napi::CallbackInfo const&), Napi::String>::Wrapper(napi_env__*, napi_callback_info__*)::'lambda'()>(Napi::details::CallbackData<Napi::String (*)(Napi::CallbackInfo const&), Napi::String>::Wrapper(napi_env__*, napi_callback_info__*)::'lambda'())
    555d:	48 83 c4 10	addq	$0x10, %rsp
    5561:	5d	popq	%rbp
    5562:	c3	retq
    5563:	66 2e 0f 1f 84 00 00 00 00 00	nopw	%cs:(%rax,%rax)
    556d:	0f 1f 00	nopl	(%rax)
__ZZN4Napi7detailsL10AttachDataINS0_12CallbackDataIPFNS_6StringERKNS_12CallbackInfoEES3_EEEE11napi_statusP10napi_env__P12napi_value__PT_ENUlSC_PvSH_E_8__invokeESC_SH_SH_:
    5570:	55	pushq	%rbp
    5571:	48 89 e5	movq	%rsp, %rbp
    5574:	48 85 f6	testq	%rsi, %rsi
    5577:	74 09	je	0x5582
    5579:	48 89 f7	movq	%rsi, %rdi
    557c:	5d	popq	%rbp
    557d:	e9 40 34 02 00	jmp	0x289c2 ## symbol stub for: __ZdlPv
    5582:	5d	popq	%rbp
    5583:	c3	retq
    5584:	66 2e 0f 1f 84 00 00 00 00 00	nopw	%cs:(%rax,%rax)
    558e:	66 90	nop
__ZN4Napi7details12WrapCallbackIZNS0_12CallbackDataIPFNS_6StringERKNS_12CallbackInfoEES3_E7WrapperEP10napi_env__P20napi_callback_info__EUlvE_EEP12napi_value__T_:
    5590:	55	pushq	%rbp
    5591:	48 89 e5	movq	%rsp, %rbp
    5594:	41 56	pushq	%r14
    5596:	53	pushq	%rbx
    5597:	48 83 ec 70	subq	$0x70, %rsp
    559b:	48 8b 07	movq	(%rdi), %rax
    559e:	48 8b 16	movq	(%rsi), %rdx
    55a1:	48 8d 7d 80	leaq	-0x80(%rbp), %rdi
    55a5:	48 89 c6	movq	%rax, %rsi
    55a8:	e8 83 00 00 00	callq	__ZN4Napi12CallbackInfoC2EP10napi_env__P20napi_callback_info__ ## Napi::CallbackInfo::CallbackInfo(napi_env__*, napi_callback_info__*)
    55ad:	48 8b 45 e8	movq	-0x18(%rbp), %rax
    55b1:	48 8b 48 08	movq	0x8(%rax), %rcx
    55b5:	48 89 4d e8	movq	%rcx, -0x18(%rbp)
    55b9:	48 8d 7d 80	leaq	-0x80(%rbp), %rdi
    55bd:	ff 10	callq	*(%rax)
    55bf:	48 89 d3	movq	%rdx, %rbx
    55c2:	48 8b 7d e0	movq	-0x20(%rbp), %rdi
    55c6:	48 85 ff	testq	%rdi, %rdi
    55c9:	74 05	je	0x55d0
    55cb:	e8 ec 33 02 00	callq	0x289bc ## symbol stub for: __ZdaPv
    55d0:	48 89 d8	movq	%rbx, %rax
    55d3:	48 83 c4 70	addq	$0x70, %rsp
    55d7:	5b	popq	%rbx
    55d8:	41 5e	popq	%r14
    55da:	5d	popq	%rbp
    55db:	c3	retq
    55dc:	48 89 d3	movq	%rdx, %rbx
    55df:	49 89 c6	movq	%rax, %r14
    55e2:	48 8b 7d e0	movq	-0x20(%rbp), %rdi
    55e6:	48 85 ff	testq	%rdi, %rdi
    55e9:	74 0d	je	0x55f8
    55eb:	e8 cc 33 02 00	callq	0x289bc ## symbol stub for: __ZdaPv
    55f0:	eb 06	jmp	0x55f8
    55f2:	48 89 d3	movq	%rdx, %rbx
    55f5:	49 89 c6	movq	%rax, %r14
    55f8:	83 fb 01	cmpl	$0x1, %ebx
    55fb:	75 21	jne	0x561e
    55fd:	4c 89 f7	movq	%r14, %rdi
    5600:	e8 e7 33 02 00	callq	0x289ec ## symbol stub for: ___cxa_begin_catch
    5605:	48 89 c7	movq	%rax, %rdi
    5608:	e8 53 fd ff ff	callq	__ZNK4Napi5Error26ThrowAsJavaScriptExceptionEv ## Napi::Error::ThrowAsJavaScriptException() const
    560d:	e8 e0 33 02 00	callq	0x289f2 ## symbol stub for: ___cxa_end_catch
    5612:	31 db	xorl	%ebx, %ebx
    5614:	eb ba	jmp	0x55d0
    5616:	49 89 c6	movq	%rax, %r14
    5619:	e8 d4 33 02 00	callq	0x289f2 ## symbol stub for: ___cxa_end_catch
    561e:	4c 89 f7	movq	%r14, %rdi
    5621:	e8 ac 32 02 00	callq	0x288d2 ## symbol stub for: __Unwind_Resume
    5626:	0f 0b	ud2
    5628:	48 89 c7	movq	%rax, %rdi
    562b:	e8 a0 cd ff ff	callq	___clang_call_terminate
__ZN4Napi12CallbackInfoC2EP10napi_env__P20napi_callback_info__:
    5630:	55	pushq	%rbp
    5631:	48 89 e5	movq	%rsp, %rbp
    5634:	41 57	pushq	%r15
    5636:	41 56	pushq	%r14
    5638:	41 54	pushq	%r12
    563a:	53	pushq	%rbx
    563b:	49 89 d6	movq	%rdx, %r14
    563e:	49 89 f7	movq	%rsi, %r15
    5641:	48 89 fb	movq	%rdi, %rbx
    5644:	48 c7 07 06 00 00 00	movq	$0x6, (%rdi)
    564b:	48 89 77 08	movq	%rsi, 0x8(%rdi)
    564f:	48 89 57 10	movq	%rdx, 0x10(%rdi)
    5653:	4c 8d 47 18	leaq	0x18(%rdi), %r8
    5657:	48 c7 47 18 00 00 00 00	movq	$0x0, 0x18(%rdi)
    565f:	4c 8d 4f 68	leaq	0x68(%rdi), %r9
    5663:	4c 8d 67 20	leaq	0x20(%rdi), %r12
    5667:	48 c7 47 60 00 00 00 00	movq	$0x0, 0x60(%rdi)
    566f:	48 c7 47 68 00 00 00 00	movq	$0x0, 0x68(%rdi)
    5677:	48 c7 47 20 06 00 00 00	movq	$0x6, 0x20(%rdi)
    567f:	48 8d 4f 30	leaq	0x30(%rdi), %rcx
    5683:	48 89 4f 28	movq	%rcx, 0x28(%rdi)
    5687:	48 89 f7	movq	%rsi, %rdi
    568a:	48 89 d6	movq	%rdx, %rsi
    568d:	4c 89 e2	movq	%r12, %rdx
    5690:	e8 9b 34 02 00	callq	0x28b30 ## symbol stub for: _napi_get_cb_info
    5695:	85 c0	testl	%eax, %eax
    5697:	75 4d	jne	0x56e6
    5699:	48 8b 43 20	movq	0x20(%rbx), %rax
    569d:	48 3b 03	cmpq	(%rbx), %rax
    56a0:	76 3b	jbe	0x56dd
    56a2:	b9 08 00 00 00	movl	$0x8, %ecx
    56a7:	48 f7 e1	mulq	%rcx
    56aa:	48 c7 c7 ff ff ff ff	movq	$-0x1, %rdi
    56b1:	48 0f 41 f8	cmovnoq	%rax, %rdi
    56b5:	e8 0e 33 02 00	callq	0x289c8 ## symbol stub for: __Znam
    56ba:	48 89 43 60	movq	%rax, 0x60(%rbx)
    56be:	48 89 43 28	movq	%rax, 0x28(%rbx)
    56c2:	4c 89 ff	movq	%r15, %rdi
    56c5:	4c 89 f6	movq	%r14, %rsi
    56c8:	4c 89 e2	movq	%r12, %rdx
    56cb:	48 89 c1	movq	%rax, %rcx
    56ce:	45 31 c0	xorl	%r8d, %r8d
    56d1:	45 31 c9	xorl	%r9d, %r9d
    56d4:	e8 57 34 02 00	callq	0x28b30 ## symbol stub for: _napi_get_cb_info
    56d9:	85 c0	testl	%eax, %eax
    56db:	75 24	jne	0x5701
    56dd:	5b	popq	%rbx
    56de:	41 5c	popq	%r12
    56e0:	41 5e	popq	%r14
    56e2:	41 5f	popq	%r15
    56e4:	5d	popq	%rbp
    56e5:	c3	retq
    56e6:	bf 38 00 00 00	movl	$0x38, %edi
    56eb:	e8 f0 32 02 00	callq	0x289e0 ## symbol stub for: ___cxa_allocate_exception
    56f0:	49 89 c6	movq	%rax, %r14
    56f3:	48 8b 73 08	movq	0x8(%rbx), %rsi
    56f7:	48 89 c7	movq	%rax, %rdi
    56fa:	e8 01 fa ff ff	callq	__ZN4Napi5Error3NewEP10napi_env__ ## Napi::Error::New(napi_env__*)
    56ff:	eb 19	jmp	0x571a
    5701:	bf 38 00 00 00	movl	$0x38, %edi
    5706:	e8 d5 32 02 00	callq	0x289e0 ## symbol stub for: ___cxa_allocate_exception
    570b:	49 89 c6	movq	%rax, %r14
    570e:	48 8b 73 08	movq	0x8(%rbx), %rsi
    5712:	48 89 c7	movq	%rax, %rdi
    5715:	e8 e6 f9 ff ff	callq	__ZN4Napi5Error3NewEP10napi_env__ ## Napi::Error::New(napi_env__*)
    571a:	48 8b 35 27 69 02 00	movq	0x26927(%rip), %rsi ## literal pool symbol address: __ZTIN4Napi5ErrorE
    5721:	48 8b 15 e0 68 02 00	movq	0x268e0(%rip), %rdx
    5728:	4c 89 f7	movq	%r14, %rdi
    572b:	e8 ce 32 02 00	callq	0x289fe ## symbol stub for: ___cxa_throw
    5730:	eb 00	jmp	0x5732
    5732:	48 89 c3	movq	%rax, %rbx
    5735:	4c 89 f7	movq	%r14, %rdi
    5738:	e8 bb 32 02 00	callq	0x289f8 ## symbol stub for: ___cxa_free_exception
    573d:	48 89 df	movq	%rbx, %rdi
    5740:	e8 8d 31 02 00	callq	0x288d2 ## symbol stub for: __Unwind_Resume
    5745:	0f 0b	ud2
    5747:	66 0f 1f 84 00 00 00 00 00	nopw	(%rax,%rax)
__ZN4Napi7details12CallbackDataIPFNS_5ValueERKNS_12CallbackInfoEES2_E7WrapperEP10napi_env__P20napi_callback_info__:
    5750:	55	pushq	%rbp
    5751:	48 89 e5	movq	%rsp, %rbp
    5754:	48 83 ec 10	subq	$0x10, %rsp
    5758:	48 89 7d f0	movq	%rdi, -0x10(%rbp)
    575c:	48 89 75 f8	movq	%rsi, -0x8(%rbp)
    5760:	48 8d 7d f0	leaq	-0x10(%rbp), %rdi
    5764:	48 8d 75 f8	leaq	-0x8(%rbp), %rsi
    5768:	e8 33 00 00 00	callq	__ZN4Napi7details12WrapCallbackIZNS0_12CallbackDataIPFNS_5ValueERKNS_12CallbackInfoEES3_E7WrapperEP10napi_env__P20napi_callback_info__EUlvE_EEP12napi_value__T_ ## napi_value__* Napi::details::WrapCallback<Napi::details::CallbackData<Napi::Value (*)(Napi::CallbackInfo const&), Napi::Value>::Wrapper(napi_env__*, napi_callback_info__*)::'lambda'()>(Napi::details::CallbackData<Napi::Value (*)(Napi::CallbackInfo const&), Napi::Value>::Wrapper(napi_env__*, napi_callback_info__*)::'lambda'())
    576d:	48 83 c4 10	addq	$0x10, %rsp
    5771:	5d	popq	%rbp
    5772:	c3	retq
    5773:	66 2e 0f 1f 84 00 00 00 00 00	nopw	%cs:(%rax,%rax)
    577d:	0f 1f 00	nopl	(%rax)
__ZZN4Napi7detailsL10AttachDataINS0_12CallbackDataIPFNS_5ValueERKNS_12CallbackInfoEES3_EEEE11napi_statusP10napi_env__P12napi_value__PT_ENUlSC_PvSH_E_8__invokeESC_SH_SH_:
    5780:	55	pushq	%rbp
    5781:	48 89 e5	movq	%rsp, %rbp
    5784:	48 85 f6	testq	%rsi, %rsi
    5787:	74 09	je	0x5792
    5789:	48 89 f7	movq	%rsi, %rdi
    578c:	5d	popq	%rbp
    578d:	e9 30 32 02 00	jmp	0x289c2 ## symbol stub for: __ZdlPv
    5792:	5d	popq	%rbp
    5793:	c3	retq
    5794:	66 2e 0f 1f 84 00 00 00 00 00	nopw	%cs:(%rax,%rax)
    579e:	66 90	nop
__ZN4Napi7details12WrapCallbackIZNS0_12CallbackDataIPFNS_5ValueERKNS_12CallbackInfoEES3_E7WrapperEP10napi_env__P20napi_callback_info__EUlvE_EEP12napi_value__T_:
    57a0:	55	pushq	%rbp
    57a1:	48 89 e5	movq	%rsp, %rbp
    57a4:	41 56	pushq	%r14
    57a6:	53	pushq	%rbx
    57a7:	48 83 ec 70	subq	$0x70, %rsp
    57ab:	48 8b 07	movq	(%rdi), %rax
    57ae:	48 8b 16	movq	(%rsi), %rdx
    57b1:	48 8d 7d 80	leaq	-0x80(%rbp), %rdi
    57b5:	48 89 c6	movq	%rax, %rsi
    57b8:	e8 73 fe ff ff	callq	__ZN4Napi12CallbackInfoC2EP10napi_env__P20napi_callback_info__ ## Napi::CallbackInfo::CallbackInfo(napi_env__*, napi_callback_info__*)
    57bd:	48 8b 45 e8	movq	-0x18(%rbp), %rax
    57c1:	48 8b 48 08	movq	0x8(%rax), %rcx
    57c5:	48 89 4d e8	movq	%rcx, -0x18(%rbp)
    57c9:	48 8d 7d 80	leaq	-0x80(%rbp), %rdi
    57cd:	ff 10	callq	*(%rax)
    57cf:	48 89 d3	movq	%rdx, %rbx
    57d2:	48 8b 7d e0	movq	-0x20(%rbp), %rdi
    57d6:	48 85 ff	testq	%rdi, %rdi
    57d9:	74 05	je	0x57e0
    57db:	e8 dc 31 02 00	callq	0x289bc ## symbol stub for: __ZdaPv
    57e0:	48 89 d8	movq	%rbx, %rax
    57e3:	48 83 c4 70	addq	$0x70, %rsp
    57e7:	5b	popq	%rbx
    57e8:	41 5e	popq	%r14
    57ea:	5d	popq	%rbp
    57eb:	c3	retq
    57ec:	48 89 d3	movq	%rdx, %rbx
    57ef:	49 89 c6	movq	%rax, %r14
    57f2:	48 8b 7d e0	movq	-0x20(%rbp), %rdi
    57f6:	48 85 ff	testq	%rdi, %rdi
    57f9:	74 0d	je	0x5808
    57fb:	e8 bc 31 02 00	callq	0x289bc ## symbol stub for: __ZdaPv
    5800:	eb 06	jmp	0x5808
    5802:	48 89 d3	movq	%rdx, %rbx
    5805:	49 89 c6	movq	%rax, %r14
    5808:	83 fb 01	cmpl	$0x1, %ebx
    580b:	75 21	jne	0x582e
    580d:	4c 89 f7	movq	%r14, %rdi
    5810:	e8 d7 31 02 00	callq	0x289ec ## symbol stub for: ___cxa_begin_catch
    5815:	48 89 c7	movq	%rax, %rdi
    5818:	e8 43 fb ff ff	callq	__ZNK4Napi5Error26ThrowAsJavaScriptExceptionEv ## Napi::Error::ThrowAsJavaScriptException() const
    581d:	e8 d0 31 02 00	callq	0x289f2 ## symbol stub for: ___cxa_end_catch
    5822:	31 db	xorl	%ebx, %ebx
    5824:	eb ba	jmp	0x57e0
    5826:	49 89 c6	movq	%rax, %r14
    5829:	e8 c4 31 02 00	callq	0x289f2 ## symbol stub for: ___cxa_end_catch
    582e:	4c 89 f7	movq	%r14, %rdi
    5831:	e8 9c 30 02 00	callq	0x288d2 ## symbol stub for: __Unwind_Resume
    5836:	0f 0b	ud2
    5838:	48 89 c7	movq	%rax, %rdi
    583b:	e8 90 cb ff ff	callq	___clang_call_terminate
__ZN18CrossBackupFormat014decode_base_64ERKNSt3__112basic_stringIcNS0_11char_traitsIcEENS0_9allocatorIcEEEE:
    5840:	55	pushq	%rbp
    5841:	48 89 e5	movq	%rsp, %rbp
    5844:	41 57	pushq	%r15
    5846:	41 56	pushq	%r14
    5848:	41 55	pushq	%r13
    584a:	41 54	pushq	%r12
    584c:	53	pushq	%rbx
    584d:	48 83 ec 38	subq	$0x38, %rsp
    5851:	48 89 d3	movq	%rdx, %rbx
    5854:	49 89 fc	movq	%rdi, %r12
    5857:	0f b6 02	movzbl	(%rdx), %eax
    585a:	a8 01	testb	$0x1, %al
    585c:	74 05	je	0x5863
    585e:	8b 53 08	movl	0x8(%rbx), %edx
    5861:	eb 06	jmp	0x5869
    5863:	48 89 c2	movq	%rax, %rdx
    5866:	48 d1 ea	shrq	%rdx
    5869:	49 c7 44 24 10 00 00 00 00	movq	$0x0, 0x10(%r12)
    5872:	49 c7 44 24 08 00 00 00 00	movq	$0x0, 0x8(%r12)
    587b:	49 c7 04 24 00 00 00 00	movq	$0x0, (%r12)
    5883:	85 d2	testl	%edx, %edx
    5885:	0f 84 2f 01 00 00	je	0x59ba
    588b:	4c 89 65 b8	movq	%r12, -0x48(%rbp)
    588f:	48 8d 73 01	leaq	0x1(%rbx), %rsi
    5893:	44 8a 7d d5	movb	-0x2b(%rbp), %r15b
    5897:	44 8a 6d d6	movb	-0x2a(%rbp), %r13b
    589b:	8a 4d d7	movb	-0x29(%rbp), %cl
    589e:	48 89 4d c0	movq	%rcx, -0x40(%rbp)
    58a2:	48 89 75 b0	movq	%rsi, -0x50(%rbp)
    58a6:	48 89 f1	movq	%rsi, %rcx
    58a9:	a8 01	testb	$0x1, %al
    58ab:	74 04	je	0x58b1
    58ad:	48 8b 4b 10	movq	0x10(%rbx), %rcx
    58b1:	44 8a 21	movb	(%rcx), %r12b
    58b4:	41 80 fc 3d	cmpb	$0x3d, %r12b
    58b8:	0f 85 0e 01 00 00	jne	0x59cc
    58be:	31 c0	xorl	%eax, %eax
    58c0:	48 89 45 c8	movq	%rax, -0x38(%rbp)
    58c4:	44 88 7d d5	movb	%r15b, -0x2b(%rbp)
    58c8:	44 88 6d d6	movb	%r13b, -0x2a(%rbp)
    58cc:	48 8b 45 c0	movq	-0x40(%rbp), %rax
    58d0:	88 45 d7	movb	%al, -0x29(%rbp)
    58d3:	48 8b 4d c8	movq	-0x38(%rbp), %rcx
    58d7:	85 c9	testl	%ecx, %ecx
    58d9:	4c 8b 65 b8	movq	-0x48(%rbp), %r12
    58dd:	0f 84 d7 00 00 00	je	0x59ba
    58e3:	83 f9 03	cmpl	$0x3, %ecx
    58e6:	7f 17	jg	0x58ff
    58e8:	48 63 c1	movslq	%ecx, %rax
    58eb:	48 8d 7c 05 d1	leaq	-0x2f(%rbp,%rax), %rdi
    58f0:	be 03 00 00 00	movl	$0x3, %esi
    58f5:	29 ce	subl	%ecx, %esi
    58f7:	48 ff c6	incq	%rsi
    58fa:	e8 db 30 02 00	callq	0x289da ## symbol stub for: ___bzero
    58ff:	0f be 75 d1	movsbl	-0x2f(%rbp), %esi
    5903:	4c 8d 2d a6 ab 02 00	leaq	__ZL12base64_chars(%rip), %r13 ## base64_chars
    590a:	4c 89 ef	movq	%r13, %rdi
    590d:	31 d2	xorl	%edx, %edx
    590f:	e8 c4 2f 02 00	callq	0x288d8 ## symbol stub for: __ZNKSt3__112basic_stringIcNS_11char_traitsIcEENS_9allocatorIcEEE4findEcm
    5914:	49 89 c7	movq	%rax, %r15
    5917:	44 88 7d d1	movb	%r15b, -0x2f(%rbp)
    591b:	0f be 75 d2	movsbl	-0x2e(%rbp), %esi
    591f:	4c 89 ef	movq	%r13, %rdi
    5922:	31 d2	xorl	%edx, %edx
    5924:	e8 af 2f 02 00	callq	0x288d8 ## symbol stub for: __ZNKSt3__112basic_stringIcNS_11char_traitsIcEENS_9allocatorIcEEE4findEcm
    5929:	49 89 c6	movq	%rax, %r14
    592c:	44 88 75 d2	movb	%r14b, -0x2e(%rbp)
    5930:	0f be 75 d3	movsbl	-0x2d(%rbp), %esi
    5934:	4c 89 ef	movq	%r13, %rdi
    5937:	31 d2	xorl	%edx, %edx
    5939:	e8 9a 2f 02 00	callq	0x288d8 ## symbol stub for: __ZNKSt3__112basic_stringIcNS_11char_traitsIcEENS_9allocatorIcEEE4findEcm
    593e:	48 89 c3	movq	%rax, %rbx
    5941:	88 5d d3	movb	%bl, -0x2d(%rbp)
    5944:	0f be 75 d4	movsbl	-0x2c(%rbp), %esi
    5948:	4c 89 ef	movq	%r13, %rdi
    594b:	31 d2	xorl	%edx, %edx
    594d:	e8 86 2f 02 00	callq	0x288d8 ## symbol stub for: __ZNKSt3__112basic_stringIcNS_11char_traitsIcEENS_9allocatorIcEEE4findEcm
    5952:	88 45 d4	movb	%al, -0x2c(%rbp)
    5955:	41 c0 e7 02	shlb	$0x2, %r15b
    5959:	44 89 f1	movl	%r14d, %ecx
    595c:	c0 e9 04	shrb	$0x4, %cl
    595f:	80 e1 03	andb	$0x3, %cl
    5962:	44 08 f9	orb	%r15b, %cl
    5965:	88 4d d5	movb	%cl, -0x2b(%rbp)
    5968:	41 c0 e6 04	shlb	$0x4, %r14b
    596c:	89 da	movl	%ebx, %edx
    596e:	c0 ea 02	shrb	$0x2, %dl
    5971:	80 e2 0f	andb	$0xf, %dl
    5974:	44 08 f2	orb	%r14b, %dl
    5977:	4c 8b 75 c8	movq	-0x38(%rbp), %r14
    597b:	88 55 d6	movb	%dl, -0x2a(%rbp)
    597e:	c0 e3 06	shlb	$0x6, %bl
    5981:	00 c3	addb	%al, %bl
    5983:	88 5d d7	movb	%bl, -0x29(%rbp)
    5986:	41 83 fe 02	cmpl	$0x2, %r14d
    598a:	7c 2e	jl	0x59ba
    598c:	41 ff ce	decl	%r14d
    598f:	bb 01 00 00 00	movl	$0x1, %ebx
    5994:	66 2e 0f 1f 84 00 00 00 00 00	nopw	%cs:(%rax,%rax)
    599e:	66 90	nop
    59a0:	0f be f1	movsbl	%cl, %esi
    59a3:	4c 89 e7	movq	%r12, %rdi
    59a6:	e8 87 2f 02 00	callq	0x28932 ## symbol stub for: __ZNSt3__112basic_stringIcNS_11char_traitsIcEENS_9allocatorIcEEE9push_backEc
    59ab:	49 39 de	cmpq	%rbx, %r14
    59ae:	74 0a	je	0x59ba
    59b0:	0f b6 4c 1d d5	movzbl	-0x2b(%rbp,%rbx), %ecx
    59b5:	48 ff c3	incq	%rbx
    59b8:	eb e6	jmp	0x59a0
    59ba:	4c 89 e0	movq	%r12, %rax
    59bd:	48 83 c4 38	addq	$0x38, %rsp
    59c1:	5b	popq	%rbx
    59c2:	41 5c	popq	%r12
    59c4:	41 5d	popq	%r13
    59c6:	41 5e	popq	%r14
    59c8:	41 5f	popq	%r15
    59ca:	5d	popq	%rbp
    59cb:	c3	retq
    59cc:	ff ca	decl	%edx
    59ce:	48 89 55 a0	movq	%rdx, -0x60(%rbp)
    59d2:	31 c0	xorl	%eax, %eax
    59d4:	48 89 45 c8	movq	%rax, -0x38(%rbp)
    59d8:	45 31 f6	xorl	%r14d, %r14d
    59db:	48 89 5d a8	movq	%rbx, -0x58(%rbp)
    59df:	eb 22	jmp	0x5a03
    59e1:	66 2e 0f 1f 84 00 00 00 00 00	nopw	%cs:(%rax,%rax)
    59eb:	0f 1f 44 00 00	nopl	(%rax,%rax)
    59f0:	46 0f b6 64 30 01	movzbl	0x1(%rax,%r14), %r12d
    59f6:	49 ff c6	incq	%r14
    59f9:	41 80 fc 3d	cmpb	$0x3d, %r12b
    59fd:	0f 84 c1 fe ff ff	je	0x58c4
    5a03:	41 0f b6 fc	movzbl	%r12b, %edi
    5a07:	45 84 e4	testb	%r12b, %r12b
    5a0a:	78 14	js	0x5a20
    5a0c:	48 8b 05 ed 65 02 00	movq	0x265ed(%rip), %rax ## literal pool symbol address: __DefaultRuneLocale
    5a13:	8b 44 b8 3c	movl	0x3c(%rax,%rdi,4), %eax
    5a17:	b9 00 05 00 00	movl	$0x500, %ecx
    5a1c:	21 c8	andl	%ecx, %eax
    5a1e:	eb 0a	jmp	0x5a2a
    5a20:	be 00 05 00 00	movl	$0x500, %esi
    5a25:	e8 e0 2f 02 00	callq	0x28a0a ## symbol stub for: ___maskrune
    5a2a:	41 80 cc 04	orb	$0x4, %r12b
    5a2e:	41 80 fc 2f	cmpb	$0x2f, %r12b
    5a32:	74 08	je	0x5a3c
    5a34:	85 c0	testl	%eax, %eax
    5a36:	0f 84 88 fe ff ff	je	0x58c4
    5a3c:	f6 03 01	testb	$0x1, (%rbx)
    5a3f:	48 8b 45 b0	movq	-0x50(%rbp), %rax
    5a43:	74 04	je	0x5a49
    5a45:	48 8b 43 10	movq	0x10(%rbx), %rax
    5a49:	42 0f b6 04 30	movzbl	(%rax,%r14), %eax
    5a4e:	48 8b 55 c8	movq	-0x38(%rbp), %rdx
    5a52:	48 63 ca	movslq	%edx, %rcx
    5a55:	ff c2	incl	%edx
    5a57:	88 44 0d d1	movb	%al, -0x2f(%rbp,%rcx)
    5a5b:	48 89 55 c8	movq	%rdx, -0x38(%rbp)
    5a5f:	83 fa 04	cmpl	$0x4, %edx
    5a62:	0f 85 b5 00 00 00	jne	0x5b1d
    5a68:	0f be 75 d1	movsbl	-0x2f(%rbp), %esi
    5a6c:	4c 8d 3d 3d aa 02 00	leaq	__ZL12base64_chars(%rip), %r15 ## base64_chars
    5a73:	4c 89 ff	movq	%r15, %rdi
    5a76:	31 d2	xorl	%edx, %edx
    5a78:	e8 5b 2e 02 00	callq	0x288d8 ## symbol stub for: __ZNKSt3__112basic_stringIcNS_11char_traitsIcEENS_9allocatorIcEEE4findEcm
    5a7d:	49 89 c5	movq	%rax, %r13
    5a80:	44 88 6d d1	movb	%r13b, -0x2f(%rbp)
    5a84:	0f be 75 d2	movsbl	-0x2e(%rbp), %esi
    5a88:	4c 89 ff	movq	%r15, %rdi
    5a8b:	31 d2	xorl	%edx, %edx
    5a8d:	e8 46 2e 02 00	callq	0x288d8 ## symbol stub for: __ZNKSt3__112basic_stringIcNS_11char_traitsIcEENS_9allocatorIcEEE4findEcm
    5a92:	49 89 c4	movq	%rax, %r12
    5a95:	44 88 65 d2	movb	%r12b, -0x2e(%rbp)
    5a99:	0f be 75 d3	movsbl	-0x2d(%rbp), %esi
    5a9d:	4c 89 ff	movq	%r15, %rdi
    5aa0:	31 d2	xorl	%edx, %edx
    5aa2:	e8 31 2e 02 00	callq	0x288d8 ## symbol stub for: __ZNKSt3__112basic_stringIcNS_11char_traitsIcEENS_9allocatorIcEEE4findEcm
    5aa7:	48 89 c3	movq	%rax, %rbx
    5aaa:	88 5d d3	movb	%bl, -0x2d(%rbp)
    5aad:	0f be 75 d4	movsbl	-0x2c(%rbp), %esi
    5ab1:	4c 89 ff	movq	%r15, %rdi
    5ab4:	31 d2	xorl	%edx, %edx
    5ab6:	e8 1d 2e 02 00	callq	0x288d8 ## symbol stub for: __ZNKSt3__112basic_stringIcNS_11char_traitsIcEENS_9allocatorIcEEE4findEcm
    5abb:	88 45 d4	movb	%al, -0x2c(%rbp)
    5abe:	41 c0 e5 02	shlb	$0x2, %r13b
    5ac2:	45 89 e7	movl	%r12d, %r15d
    5ac5:	41 c0 ef 04	shrb	$0x4, %r15b
    5ac9:	41 80 e7 03	andb	$0x3, %r15b
    5acd:	45 08 ef	orb	%r13b, %r15b
    5ad0:	41 c0 e4 04	shlb	$0x4, %r12b
    5ad4:	41 89 dd	movl	%ebx, %r13d
    5ad7:	41 c0 ed 02	shrb	$0x2, %r13b
    5adb:	41 80 e5 0f	andb	$0xf, %r13b
    5adf:	45 08 e5	orb	%r12b, %r13b
    5ae2:	c0 e3 06	shlb	$0x6, %bl
    5ae5:	00 c3	addb	%al, %bl
    5ae7:	48 89 5d c0	movq	%rbx, -0x40(%rbp)
    5aeb:	41 0f be f7	movsbl	%r15b, %esi
    5aef:	48 8b 5d b8	movq	-0x48(%rbp), %rbx
    5af3:	48 89 df	movq	%rbx, %rdi
    5af6:	e8 37 2e 02 00	callq	0x28932 ## symbol stub for: __ZNSt3__112basic_stringIcNS_11char_traitsIcEENS_9allocatorIcEEE9push_backEc
    5afb:	41 0f be f5	movsbl	%r13b, %esi
    5aff:	48 89 df	movq	%rbx, %rdi
    5b02:	e8 2b 2e 02 00	callq	0x28932 ## symbol stub for: __ZNSt3__112basic_stringIcNS_11char_traitsIcEENS_9allocatorIcEEE9push_backEc
    5b07:	31 c0	xorl	%eax, %eax
    5b09:	48 89 45 c8	movq	%rax, -0x38(%rbp)
    5b0d:	0f be 75 c0	movsbl	-0x40(%rbp), %esi
    5b11:	48 89 df	movq	%rbx, %rdi
    5b14:	e8 19 2e 02 00	callq	0x28932 ## symbol stub for: __ZNSt3__112basic_stringIcNS_11char_traitsIcEENS_9allocatorIcEEE9push_backEc
    5b19:	48 8b 5d a8	movq	-0x58(%rbp), %rbx
    5b1d:	44 39 75 a0	cmpl	%r14d, -0x60(%rbp)
    5b21:	0f 84 9d fd ff ff	je	0x58c4
    5b27:	f6 03 01	testb	$0x1, (%rbx)
    5b2a:	48 8b 45 b0	movq	-0x50(%rbp), %rax
    5b2e:	0f 84 bc fe ff ff	je	0x59f0
    5b34:	48 8b 43 10	movq	0x10(%rbx), %rax
    5b38:	e9 b3 fe ff ff	jmp	0x59f0
    5b3d:	eb 00	jmp	0x5b3f
    5b3f:	49 89 c6	movq	%rax, %r14
    5b42:	44 88 7d d5	movb	%r15b, -0x2b(%rbp)
    5b46:	44 88 6d d6	movb	%r13b, -0x2a(%rbp)
    5b4a:	48 8b 45 c0	movq	-0x40(%rbp), %rax
    5b4e:	88 45 d7	movb	%al, -0x29(%rbp)
    5b51:	eb 03	jmp	0x5b56
    5b53:	49 89 c6	movq	%rax, %r14
    5b56:	48 8b 45 b8	movq	-0x48(%rbp), %rax
    5b5a:	f6 00 01	testb	$0x1, (%rax)
    5b5d:	74 0d	je	0x5b6c
    5b5f:	48 8b 45 b8	movq	-0x48(%rbp), %rax
    5b63:	48 8b 78 10	movq	0x10(%rax), %rdi
    5b67:	e8 56 2e 02 00	callq	0x289c2 ## symbol stub for: __ZdlPv
    5b6c:	4c 89 f7	movq	%r14, %rdi
    5b6f:	e8 5e 2d 02 00	callq	0x288d2 ## symbol stub for: __Unwind_Resume
    5b74:	0f 0b	ud2
    5b76:	66 2e 0f 1f 84 00 00 00 00 00	nopw	%cs:(%rax,%rax)
__ZN18CrossBackupFormat07decryptERKNSt3__112basic_stringIcNS0_11char_traitsIcEENS0_9allocatorIcEEEES8_S8_:
    5b80:	55	pushq	%rbp
    5b81:	48 89 e5	movq	%rsp, %rbp
    5b84:	41 56	pushq	%r14
    5b86:	53	pushq	%rbx
    5b87:	48 83 ec 20	subq	$0x20, %rsp
    5b8b:	49 89 d6	movq	%rdx, %r14
    5b8e:	48 89 f3	movq	%rsi, %rbx
    5b91:	48 8d 7d d8	leaq	-0x28(%rbp), %rdi
    5b95:	48 89 ca	movq	%rcx, %rdx
    5b98:	e8 a3 fc ff ff	callq	__ZN18CrossBackupFormat014decode_base_64ERKNSt3__112basic_stringIcNS0_11char_traitsIcEENS0_9allocatorIcEEEE ## CrossBackupFormat0::decode_base_64(std::__1::basic_string<char, std::__1::char_traits<char>, std::__1::allocator<char>> const&)
    5b9d:	f6 03 01	testb	$0x1, (%rbx)
    5ba0:	74 0f	je	0x5bb1
    5ba2:	48 8b 5b 10	movq	0x10(%rbx), %rbx
    5ba6:	41 f6 06 01	testb	$0x1, (%r14)
    5baa:	75 0e	jne	0x5bba
    5bac:	49 ff c6	incq	%r14
    5baf:	eb 0d	jmp	0x5bbe
    5bb1:	48 ff c3	incq	%rbx
    5bb4:	41 f6 06 01	testb	$0x1, (%r14)
    5bb8:	74 f2	je	0x5bac
    5bba:	4d 8b 76 10	movq	0x10(%r14), %r14
    5bbe:	0f b6 45 d8	movzbl	-0x28(%rbp), %eax
    5bc2:	48 89 c1	movq	%rax, %rcx
    5bc5:	48 d1 e9	shrq	%rcx
    5bc8:	a8 01	testb	$0x1, %al
    5bca:	48 8d 55 d9	leaq	-0x27(%rbp), %rdx
    5bce:	48 0f 45 55 e8	cmovneq	-0x18(%rbp), %rdx
    5bd3:	0f 45 4d e0	cmovnel	-0x20(%rbp), %ecx
    5bd7:	48 89 df	movq	%rbx, %rdi
    5bda:	4c 89 f6	movq	%r14, %rsi
    5bdd:	e8 3e db 00 00	callq	_decrypt_then_decompress_file
    5be2:	31 db	xorl	%ebx, %ebx
    5be4:	83 f8 f7	cmpl	$-0x9, %eax
    5be7:	0f 45 d8	cmovnel	%eax, %ebx
    5bea:	f6 45 d8 01	testb	$0x1, -0x28(%rbp)
    5bee:	74 09	je	0x5bf9
    5bf0:	48 8b 7d e8	movq	-0x18(%rbp), %rdi
    5bf4:	e8 c9 2d 02 00	callq	0x289c2 ## symbol stub for: __ZdlPv
    5bf9:	89 d8	movl	%ebx, %eax
    5bfb:	48 83 c4 20	addq	$0x20, %rsp
    5bff:	5b	popq	%rbx
    5c00:	41 5e	popq	%r14
    5c02:	5d	popq	%rbp
    5c03:	c3	retq
    5c04:	48 89 c3	movq	%rax, %rbx
    5c07:	f6 45 d8 01	testb	$0x1, -0x28(%rbp)
    5c0b:	74 09	je	0x5c16
    5c0d:	48 8b 7d e8	movq	-0x18(%rbp), %rdi
    5c11:	e8 ac 2d 02 00	callq	0x289c2 ## symbol stub for: __ZdlPv
    5c16:	48 89 df	movq	%rbx, %rdi
    5c19:	e8 b4 2c 02 00	callq	0x288d2 ## symbol stub for: __Unwind_Resume
    5c1e:	0f 0b	ud2
__GLOBAL__sub_I_db_format_0.cpp:
    5c20:	55	pushq	%rbp
    5c21:	48 89 e5	movq	%rsp, %rbp
    5c24:	bf 50 00 00 00	movl	$0x50, %edi
    5c29:	e8 a0 2d 02 00	callq	0x289ce ## symbol stub for: __Znwm
    5c2e:	48 89 05 8b a8 02 00	movq	%rax, 0x2a88b(%rip)
    5c35:	48 8d 35 74 a8 02 00	leaq	__ZL12base64_chars(%rip), %rsi ## base64_chars
    5c3c:	0f 28 05 dd 4b 02 00	movaps	0x24bdd(%rip), %xmm0
    5c43:	0f 29 05 66 a8 02 00	movaps	%xmm0, __ZL12base64_chars(%rip) ## base64_chars
    5c4a:	48 b9 34 35 36 37 38 39 2b 2f	movabsq	$0x2f2b393837363534, %rcx
    5c54:	48 89 48 38	movq	%rcx, 0x38(%rax)
    5c58:	48 b9 77 78 79 7a 30 31 32 33	movabsq	$0x333231307a797877, %rcx
    5c62:	48 89 48 30	movq	%rcx, 0x30(%rax)
    5c66:	48 b9 6f 70 71 72 73 74 75 76	movabsq	$0x767574737271706f, %rcx
    5c70:	48 89 48 28	movq	%rcx, 0x28(%rax)
    5c74:	48 b9 67 68 69 6a 6b 6c 6d 6e	movabsq	$0x6e6d6c6b6a696867, %rcx
    5c7e:	48 89 48 20	movq	%rcx, 0x20(%rax)
    5c82:	48 b9 59 5a 61 62 63 64 65 66	movabsq	$0x6665646362615a59, %rcx
    5c8c:	48 89 48 18	movq	%rcx, 0x18(%rax)
    5c90:	48 b9 51 52 53 54 55 56 57 58	movabsq	$0x5857565554535251, %rcx
    5c9a:	48 89 48 10	movq	%rcx, 0x10(%rax)
    5c9e:	48 b9 49 4a 4b 4c 4d 4e 4f 50	movabsq	$0x504f4e4d4c4b4a49, %rcx
    5ca8:	48 89 48 08	movq	%rcx, 0x8(%rax)
    5cac:	48 b9 41 42 43 44 45 46 47 48	movabsq	$0x4847464544434241, %rcx
    5cb6:	48 89 08	movq	%rcx, (%rax)
    5cb9:	c6 40 40 00	movb	$0x0, 0x40(%rax)
    5cbd:	48 8b 3d 6c 63 02 00	movq	0x2636c(%rip), %rdi ## literal pool symbol address: __ZNSt3__112basic_stringIcNS_11char_traitsIcEENS_9allocatorIcEEED1Ev
    5cc4:	48 8d 15 35 a3 ff ff	leaq	-0x5ccb(%rip), %rdx
    5ccb:	5d	popq	%rbp
    5ccc:	e9 15 2d 02 00	jmp	0x289e6 ## symbol stub for: ___cxa_atexit
    5cd1:	90	nop
    5cd2:	90	nop
    5cd3:	90	nop
    5cd4:	90	nop
    5cd5:	90	nop
    5cd6:	90	nop
    5cd7:	90	nop
    5cd8:	90	nop
    5cd9:	90	nop
    5cda:	90	nop
    5cdb:	90	nop
    5cdc:	90	nop
    5cdd:	90	nop
    5cde:	90	nop
    5cdf:	90	nop
__Z11swap_uint32j:
    5ce0:	55	pushq	%rbp
    5ce1:	48 89 e5	movq	%rsp, %rbp
    5ce4:	89 f8	movl	%edi, %eax
    5ce6:	0f c8	bswapl	%eax
    5ce8:	5d	popq	%rbp
    5ce9:	c3	retq
    5cea:	66 0f 1f 44 00 00	nopw	(%rax,%rax)
__Z11read_headerP7__sFILERiRNSt3__112basic_stringIcNS2_11char_traitsIcEENS2_9allocatorIcEEEE:
    5cf0:	55	pushq	%rbp
    5cf1:	48 89 e5	movq	%rsp, %rbp
    5cf4:	41 57	pushq	%r15
    5cf6:	41 56	pushq	%r14
    5cf8:	41 55	pushq	%r13
    5cfa:	41 54	pushq	%r12
    5cfc:	53	pushq	%rbx
    5cfd:	48 83 ec 18	subq	$0x18, %rsp
    5d01:	49 89 d7	movq	%rdx, %r15
    5d04:	49 89 f4	movq	%rsi, %r12
    5d07:	48 89 fb	movq	%rdi, %rbx
    5d0a:	c7 45 d0 00 00 00 00	movl	$0x0, -0x30(%rbp)
    5d11:	48 8d 7d d0	leaq	-0x30(%rbp), %rdi
    5d15:	be 01 00 00 00	movl	$0x1, %esi
    5d1a:	ba 04 00 00 00	movl	$0x4, %edx
    5d1f:	48 89 d9	movq	%rbx, %rcx
    5d22:	e8 31 2d 02 00	callq	0x28a58 ## symbol stub for: _fread
    5d27:	48 85 c0	testq	%rax, %rax
    5d2a:	0f 84 a9 00 00 00	je	0x5dd9
    5d30:	48 83 f8 04	cmpq	$0x4, %rax
    5d34:	0f 85 a6 00 00 00	jne	0x5de0
    5d3a:	44 8b 75 d0	movl	-0x30(%rbp), %r14d
    5d3e:	41 0f ce	bswapl	%r14d
    5d41:	b8 fe ff ff ff	movl	$0xfffffffe, %eax
    5d46:	41 81 fe 80 00 00 00	cmpl	$0x80, %r14d
    5d4d:	0f 87 a1 00 00 00	ja	0x5df4
    5d53:	4c 89 65 c8	movq	%r12, -0x38(%rbp)
    5d57:	45 89 f5	movl	%r14d, %r13d
    5d5a:	4c 89 ef	movq	%r13, %rdi
    5d5d:	e8 66 2c 02 00	callq	0x289c8 ## symbol stub for: __Znam
    5d62:	49 89 c4	movq	%rax, %r12
    5d65:	be 01 00 00 00	movl	$0x1, %esi
    5d6a:	48 89 c7	movq	%rax, %rdi
    5d6d:	4c 89 ea	movq	%r13, %rdx
    5d70:	48 89 d9	movq	%rbx, %rcx
    5d73:	e8 e0 2c 02 00	callq	0x28a58 ## symbol stub for: _fread
    5d78:	41 39 c6	cmpl	%eax, %r14d
    5d7b:	75 6a	jne	0x5de7
    5d7d:	4c 89 ff	movq	%r15, %rdi
    5d80:	4c 89 e6	movq	%r12, %rsi
    5d83:	4c 89 ea	movq	%r13, %rdx
    5d86:	e8 89 2b 02 00	callq	0x28914 ## symbol stub for: __ZNSt3__112basic_stringIcNS_11char_traitsIcEENS_9allocatorIcEEE6appendEPKcm
    5d8b:	4c 89 e7	movq	%r12, %rdi
    5d8e:	e8 29 2c 02 00	callq	0x289bc ## symbol stub for: __ZdaPv
    5d93:	c7 45 d4 00 00 00 00	movl	$0x0, -0x2c(%rbp)
    5d9a:	48 8d 7d d4	leaq	-0x2c(%rbp), %rdi
    5d9e:	be 01 00 00 00	movl	$0x1, %esi
    5da3:	ba 04 00 00 00	movl	$0x4, %edx
    5da8:	48 89 d9	movq	%rbx, %rcx
    5dab:	e8 a8 2c 02 00	callq	0x28a58 ## symbol stub for: _fread
    5db0:	48 89 c1	movq	%rax, %rcx
    5db3:	b8 fc ff ff ff	movl	$0xfffffffc, %eax
    5db8:	48 83 f9 04	cmpq	$0x4, %rcx
    5dbc:	75 36	jne	0x5df4
    5dbe:	8b 45 d4	movl	-0x2c(%rbp), %eax
    5dc1:	0f c8	bswapl	%eax
    5dc3:	48 8b 4d c8	movq	-0x38(%rbp), %rcx
    5dc7:	89 01	movl	%eax, (%rcx)
    5dc9:	31 c9	xorl	%ecx, %ecx
    5dcb:	3d 01 94 35 77	cmpl	$0x77359401, %eax
    5dd0:	0f 92 c1	setb	%cl
    5dd3:	8d 44 89 fb	leal	-0x5(%rcx,%rcx,4), %eax
    5dd7:	eb 1b	jmp	0x5df4
    5dd9:	b8 01 00 00 00	movl	$0x1, %eax
    5dde:	eb 14	jmp	0x5df4
    5de0:	b8 ff ff ff ff	movl	$0xffffffff, %eax
    5de5:	eb 0d	jmp	0x5df4
    5de7:	4c 89 e7	movq	%r12, %rdi
    5dea:	e8 cd 2b 02 00	callq	0x289bc ## symbol stub for: __ZdaPv
    5def:	b8 fd ff ff ff	movl	$0xfffffffd, %eax
    5df4:	48 83 c4 18	addq	$0x18, %rsp
    5df8:	5b	popq	%rbx
    5df9:	41 5c	popq	%r12
    5dfb:	41 5d	popq	%r13
    5dfd:	41 5e	popq	%r14
    5dff:	41 5f	popq	%r15
    5e01:	5d	popq	%rbp
    5e02:	c3	retq
    5e03:	66 2e 0f 1f 84 00 00 00 00 00	nopw	%cs:(%rax,%rax)
    5e0d:	0f 1f 00	nopl	(%rax)
__Z12decrypt_fileP7__sFILENSt3__112basic_stringIcNS1_11char_traitsIcEENS1_9allocatorIcEEEERS7_:
    5e10:	55	pushq	%rbp
    5e11:	48 89 e5	movq	%rsp, %rbp
    5e14:	41 57	pushq	%r15
    5e16:	41 56	pushq	%r14
    5e18:	41 55	pushq	%r13
    5e1a:	41 54	pushq	%r12
    5e1c:	53	pushq	%rbx
    5e1d:	48 81 ec 58 01 00 00	subq	$0x158, %rsp
    5e24:	49 89 f6	movq	%rsi, %r14
    5e27:	49 89 fd	movq	%rdi, %r13
    5e2a:	48 8b 05 57 62 02 00	movq	0x26257(%rip), %rax ## literal pool symbol address: ___stack_chk_guard
    5e31:	48 8b 00	movq	(%rax), %rax
    5e34:	48 89 45 d0	movq	%rax, -0x30(%rbp)
    5e38:	0f b6 06	movzbl	(%rsi), %eax
    5e3b:	a8 01	testb	$0x1, %al
    5e3d:	75 0d	jne	0x5e4c
    5e3f:	48 d1 e8	shrq	%rax
    5e42:	48 85 c0	testq	%rax, %rax
    5e45:	75 12	jne	0x5e59
    5e47:	e9 e8 01 00 00	jmp	0x6034
    5e4c:	49 8b 46 08	movq	0x8(%r14), %rax
    5e50:	48 85 c0	testq	%rax, %rax
    5e53:	0f 84 db 01 00 00	je	0x6034
    5e59:	48 89 95 98 fe ff ff	movq	%rdx, -0x168(%rbp)
    5e60:	48 8d bd 80 fe ff ff	leaq	-0x180(%rbp), %rdi
    5e67:	be 00 01 00 00	movl	$0x100, %esi
    5e6c:	e8 cf 8e 00 00	callq	__ZN3AESC1Ei ## AES::AES(int)
    5e71:	0f 57 c0	xorps	%xmm0, %xmm0
    5e74:	0f 29 45 c0	movaps	%xmm0, -0x40(%rbp)
    5e78:	0f 29 45 b0	movaps	%xmm0, -0x50(%rbp)
    5e7c:	0f 29 45 a0	movaps	%xmm0, -0x60(%rbp)
    5e80:	0f 29 45 90	movaps	%xmm0, -0x70(%rbp)
    5e84:	0f 29 45 80	movaps	%xmm0, -0x80(%rbp)
    5e88:	0f 29 85 70 ff ff ff	movaps	%xmm0, -0x90(%rbp)
    5e8f:	0f 29 85 60 ff ff ff	movaps	%xmm0, -0xa0(%rbp)
    5e96:	0f 29 85 50 ff ff ff	movaps	%xmm0, -0xb0(%rbp)
    5e9d:	0f 29 85 40 ff ff ff	movaps	%xmm0, -0xc0(%rbp)
    5ea4:	0f 29 85 30 ff ff ff	movaps	%xmm0, -0xd0(%rbp)
    5eab:	0f 29 85 20 ff ff ff	movaps	%xmm0, -0xe0(%rbp)
    5eb2:	0f 29 85 10 ff ff ff	movaps	%xmm0, -0xf0(%rbp)
    5eb9:	0f 29 85 00 ff ff ff	movaps	%xmm0, -0x100(%rbp)
    5ec0:	0f 29 85 f0 fe ff ff	movaps	%xmm0, -0x110(%rbp)
    5ec7:	0f 29 85 e0 fe ff ff	movaps	%xmm0, -0x120(%rbp)
    5ece:	0f 29 85 d0 fe ff ff	movaps	%xmm0, -0x130(%rbp)
    5ed5:	41 0f b6 16	movzbl	(%r14), %edx
    5ed9:	f6 c2 01	testb	$0x1, %dl
    5edc:	75 08	jne	0x5ee6
    5ede:	49 ff c6	incq	%r14
    5ee1:	48 d1 ea	shrq	%rdx
    5ee4:	eb 17	jmp	0x5efd
    5ee6:	49 8b 46 08	movq	0x8(%r14), %rax
    5eea:	4d 8b 76 10	movq	0x10(%r14), %r14
    5eee:	48 3d 00 01 00 00	cmpq	$0x100, %rax
    5ef4:	ba 00 01 00 00	movl	$0x100, %edx
    5ef9:	48 0f 42 d0	cmovbq	%rax, %rdx
    5efd:	48 8d bd d0 fe ff ff	leaq	-0x130(%rbp), %rdi
    5f04:	4c 89 f6	movq	%r14, %rsi
    5f07:	e8 94 2b 02 00	callq	0x28aa0 ## symbol stub for: _memcpy
    5f0c:	0f 57 c0	xorps	%xmm0, %xmm0
    5f0f:	0f 29 85 c0 fe ff ff	movaps	%xmm0, -0x140(%rbp)
    5f16:	0f 29 85 b0 fe ff ff	movaps	%xmm0, -0x150(%rbp)
    5f1d:	48 8d bd 80 fe ff ff	leaq	-0x180(%rbp), %rdi
    5f24:	be 00 00 01 00	movl	$0x10000, %esi
    5f29:	e8 a2 8f 00 00	callq	__ZN3AES16GetPaddingLengthEj ## AES::GetPaddingLength(unsigned int)
    5f2e:	41 89 c6	movl	%eax, %r14d
    5f31:	4c 89 f7	movq	%r14, %rdi
    5f34:	e8 8f 2a 02 00	callq	0x289c8 ## symbol stub for: __Znam
    5f39:	48 89 c3	movq	%rax, %rbx
    5f3c:	45 31 e4	xorl	%r12d, %r12d
    5f3f:	48 89 85 a0 fe ff ff	movq	%rax, -0x160(%rbp)
    5f46:	4c 89 b5 90 fe ff ff	movq	%r14, -0x170(%rbp)
    5f4d:	eb 21	jmp	0x5f70
    5f4f:	90	nop
    5f50:	45 01 fc	addl	%r15d, %r12d
    5f53:	48 8b 85 90 fe ff ff	movq	-0x170(%rbp), %rax
    5f5a:	44 39 f8	cmpl	%r15d, %eax
    5f5d:	4d 89 f5	movq	%r14, %r13
    5f60:	49 89 c6	movq	%rax, %r14
    5f63:	48 8b 9d a0 fe ff ff	movq	-0x160(%rbp), %rbx
    5f6a:	0f 8f bc 00 00 00	jg	0x602c
    5f70:	be 01 00 00 00	movl	$0x1, %esi
    5f75:	48 89 df	movq	%rbx, %rdi
    5f78:	4c 89 f2	movq	%r14, %rdx
    5f7b:	4c 89 e9	movq	%r13, %rcx
    5f7e:	e8 d5 2a 02 00	callq	0x28a58 ## symbol stub for: _fread
    5f83:	49 89 c7	movq	%rax, %r15
    5f86:	45 85 ff	testl	%r15d, %r15d
    5f89:	0f 8e 9d 00 00 00	jle	0x602c
    5f8f:	c7 85 ac fe ff ff 00 00 00 00	movl	$0x0, -0x154(%rbp)
    5f99:	48 8d bd 80 fe ff ff	leaq	-0x180(%rbp), %rdi
    5fa0:	48 89 de	movq	%rbx, %rsi
    5fa3:	44 89 fa	movl	%r15d, %edx
    5fa6:	48 8d 8d d0 fe ff ff	leaq	-0x130(%rbp), %rcx
    5fad:	4c 8d 85 b0 fe ff ff	leaq	-0x150(%rbp), %r8
    5fb4:	4c 8d 8d ac fe ff ff	leaq	-0x154(%rbp), %r9
    5fbb:	e8 e0 a1 00 00	callq	__ZN3AES10DecryptCBCEPhjS0_S0_Rj ## AES::DecryptCBC(unsigned char*, unsigned int, unsigned char*, unsigned char*, unsigned int&)
    5fc0:	4c 89 eb	movq	%r13, %rbx
    5fc3:	49 89 c5	movq	%rax, %r13
    5fc6:	4c 89 fe	movq	%r15, %rsi
    5fc9:	48 c1 e6 20	shlq	$0x20, %rsi
    5fcd:	48 f7 de	negq	%rsi
    5fd0:	48 c1 fe 20	sarq	$0x20, %rsi
    5fd4:	48 89 df	movq	%rbx, %rdi
    5fd7:	ba 01 00 00 00	movl	$0x1, %edx
    5fdc:	e8 83 2a 02 00	callq	0x28a64 ## symbol stub for: _fseek
    5fe1:	49 63 d7	movslq	%r15d, %rdx
    5fe4:	be 01 00 00 00	movl	$0x1, %esi
    5fe9:	4c 89 ef	movq	%r13, %rdi
    5fec:	49 89 de	movq	%rbx, %r14
    5fef:	48 89 d9	movq	%rbx, %rcx
    5ff2:	e8 79 2a 02 00	callq	0x28a70 ## symbol stub for: _fwrite
    5ff7:	45 85 e4	testl	%r12d, %r12d
    5ffa:	75 1a	jne	0x6016
    5ffc:	41 8b 45 00	movl	(%r13), %eax
    6000:	b9 5a 44 42 34	movl	$0x3442445a, %ecx
    6005:	31 c8	xorl	%ecx, %eax
    6007:	41 0f b7 4d 04	movzwl	0x4(%r13), %ecx
    600c:	81 f1 2e 30 00 00	xorl	$0x302e, %ecx
    6012:	09 c1	orl	%eax, %ecx
    6014:	75 42	jne	0x6058
    6016:	4d 85 ed	testq	%r13, %r13
    6019:	0f 84 31 ff ff ff	je	0x5f50
    601f:	4c 89 ef	movq	%r13, %rdi
    6022:	e8 95 29 02 00	callq	0x289bc ## symbol stub for: __ZdaPv
    6027:	e9 24 ff ff ff	jmp	0x5f50
    602c:	48 89 df	movq	%rbx, %rdi
    602f:	e8 88 29 02 00	callq	0x289bc ## symbol stub for: __ZdaPv
    6034:	31 c0	xorl	%eax, %eax
    6036:	48 8b 0d 4b 60 02 00	movq	0x2604b(%rip), %rcx ## literal pool symbol address: ___stack_chk_guard
    603d:	48 8b 09	movq	(%rcx), %rcx
    6040:	48 3b 4d d0	cmpq	-0x30(%rbp), %rcx
    6044:	75 53	jne	0x6099
    6046:	48 81 c4 58 01 00 00	addq	$0x158, %rsp
    604d:	5b	popq	%rbx
    604e:	41 5c	popq	%r12
    6050:	41 5d	popq	%r13
    6052:	41 5e	popq	%r14
    6054:	41 5f	popq	%r15
    6056:	5d	popq	%rbp
    6057:	c3	retq
    6058:	4d 85 ed	testq	%r13, %r13
    605b:	74 08	je	0x6065
    605d:	4c 89 ef	movq	%r13, %rdi
    6060:	e8 57 29 02 00	callq	0x289bc ## symbol stub for: __ZdaPv
    6065:	48 8b bd a0 fe ff ff	movq	-0x160(%rbp), %rdi
    606c:	e8 4b 29 02 00	callq	0x289bc ## symbol stub for: __ZdaPv
    6071:	48 8d 35 c8 4e 02 00	leaq	0x24ec8(%rip), %rsi ## literal pool for: "invalid signature"
    6078:	48 8b bd 98 fe ff ff	movq	-0x168(%rbp), %rdi
    607f:	e8 8a 28 02 00	callq	0x2890e ## symbol stub for: __ZNSt3__112basic_stringIcNS_11char_traitsIcEENS_9allocatorIcEEE6appendEPKc
    6084:	b8 ff ff ff ff	movl	$0xffffffff, %eax
    6089:	48 8b 0d f8 5f 02 00	movq	0x25ff8(%rip), %rcx ## literal pool symbol address: ___stack_chk_guard
    6090:	48 8b 09	movq	(%rcx), %rcx
    6093:	48 3b 4d d0	cmpq	-0x30(%rbp), %rcx
    6097:	74 ad	je	0x6046
    6099:	e8 78 29 02 00	callq	0x28a16 ## symbol stub for: ___stack_chk_fail
    609e:	66 90	nop
__Z15decompress_fileP7__sFILENSt3__112basic_stringIcNS1_11char_traitsIcEENS1_9allocatorIcEEEERS7_:
    60a0:	55	pushq	%rbp
    60a1:	48 89 e5	movq	%rsp, %rbp
    60a4:	41 57	pushq	%r15
    60a6:	41 56	pushq	%r14
    60a8:	41 55	pushq	%r13
    60aa:	41 54	pushq	%r12
    60ac:	53	pushq	%rbx
    60ad:	48 81 ec 38 02 00 00	subq	$0x238, %rsp
    60b4:	49 89 d6	movq	%rdx, %r14
    60b7:	49 89 f7	movq	%rsi, %r15
    60ba:	48 89 fb	movq	%rdi, %rbx
    60bd:	48 8b 05 c4 5f 02 00	movq	0x25fc4(%rip), %rax ## literal pool symbol address: ___stack_chk_guard
    60c4:	48 8b 00	movq	(%rax), %rax
    60c7:	48 89 45 d0	movq	%rax, -0x30(%rbp)
    60cb:	be 06 00 00 00	movl	$0x6, %esi
    60d0:	31 d2	xorl	%edx, %edx
    60d2:	e8 8d 29 02 00	callq	0x28a64 ## symbol stub for: _fseek
    60d7:	c7 85 28 fe ff ff 00 00 00 00	movl	$0x0, -0x1d8(%rbp)
    60e1:	48 8d bd 28 fe ff ff	leaq	-0x1d8(%rbp), %rdi
    60e8:	be 01 00 00 00	movl	$0x1, %esi
    60ed:	ba 04 00 00 00	movl	$0x4, %edx
    60f2:	48 89 d9	movq	%rbx, %rcx
    60f5:	e8 5e 29 02 00	callq	0x28a58 ## symbol stub for: _fread
    60fa:	44 8b ad 28 fe ff ff	movl	-0x1d8(%rbp), %r13d
    6101:	41 0f cd	bswapl	%r13d
    6104:	44 89 ad 28 fe ff ff	movl	%r13d, -0x1d8(%rbp)
    610b:	41 83 c5 f2	addl	$-0xe, %r13d
    610f:	0f 88 cf 00 00 00	js	0x61e4
    6115:	4c 89 bd a0 fd ff ff	movq	%r15, -0x260(%rbp)
    611c:	4c 89 b5 f8 fd ff ff	movq	%r14, -0x208(%rbp)
    6123:	c7 85 1c fe ff ff 00 00 00 00	movl	$0x0, -0x1e4(%rbp)
    612d:	48 8d bd 1c fe ff ff	leaq	-0x1e4(%rbp), %rdi
    6134:	be 01 00 00 00	movl	$0x1, %esi
    6139:	ba 04 00 00 00	movl	$0x4, %edx
    613e:	48 89 d9	movq	%rbx, %rcx
    6141:	e8 12 29 02 00	callq	0x28a58 ## symbol stub for: _fread
    6146:	44 8b b5 1c fe ff ff	movl	-0x1e4(%rbp), %r14d
    614d:	41 0f ce	bswapl	%r14d
    6150:	44 89 b5 1c fe ff ff	movl	%r14d, -0x1e4(%rbp)
    6157:	0f 28 05 d2 46 02 00	movaps	0x246d2(%rip), %xmm0
    615e:	0f 29 45 a0	movaps	%xmm0, -0x60(%rbp)
    6162:	c7 45 c0 00 00 00 00	movl	$0x0, -0x40(%rbp)
    6169:	48 c7 45 c8 00 00 00 00	movq	$0x0, -0x38(%rbp)
    6171:	bf 00 00 01 00	movl	$0x10000, %edi
    6176:	e8 4d 28 02 00	callq	0x289c8 ## symbol stub for: __Znam
    617b:	49 89 c4	movq	%rax, %r12
    617e:	be 01 00 00 00	movl	$0x1, %esi
    6183:	ba 00 00 01 00	movl	$0x10000, %edx
    6188:	48 89 c7	movq	%rax, %rdi
    618b:	48 89 9d 20 fe ff ff	movq	%rbx, -0x1e0(%rbp)
    6192:	48 89 d9	movq	%rbx, %rcx
    6195:	e8 be 28 02 00	callq	0x28a58 ## symbol stub for: _fread
    619a:	85 c0	testl	%eax, %eax
    619c:	7e 6f	jle	0x620d
    619e:	4c 8d 7d a0	leaq	-0x60(%rbp), %r15
    61a2:	44 89 eb	movl	%r13d, %ebx
    61a5:	66 2e 0f 1f 84 00 00 00 00 00	nopw	%cs:(%rax,%rax)
    61af:	90	nop
    61b0:	29 c3	subl	%eax, %ebx
    61b2:	7e 4a	jle	0x61fe
    61b4:	48 63 d0	movslq	%eax, %rdx
    61b7:	4c 89 ff	movq	%r15, %rdi
    61ba:	4c 89 e6	movq	%r12, %rsi
    61bd:	e8 5e 0c 00 00	callq	__ZN8XXHash323addEPKvy ## XXHash32::add(void const*, unsigned long long)
    61c2:	be 01 00 00 00	movl	$0x1, %esi
    61c7:	ba 00 00 01 00	movl	$0x10000, %edx
    61cc:	4c 89 e7	movq	%r12, %rdi
    61cf:	48 8b 8d 20 fe ff ff	movq	-0x1e0(%rbp), %rcx
    61d6:	e8 7d 28 02 00	callq	0x28a58 ## symbol stub for: _fread
    61db:	41 89 dd	movl	%ebx, %r13d
    61de:	85 c0	testl	%eax, %eax
    61e0:	7f ce	jg	0x61b0
    61e2:	eb 29	jmp	0x620d
    61e4:	48 8d 35 67 4d 02 00	leaq	0x24d67(%rip), %rsi ## literal pool for: "invalid hash data length"
    61eb:	4c 89 f7	movq	%r14, %rdi
    61ee:	e8 1b 27 02 00	callq	0x2890e ## symbol stub for: __ZNSt3__112basic_stringIcNS_11char_traitsIcEENS_9allocatorIcEEE6appendEPKc
    61f3:	41 bf 90 ff ff ff	movl	$0xffffff90, %r15d
    61f9:	e9 92 09 00 00	jmp	0x6b90
    61fe:	49 63 d5	movslq	%r13d, %rdx
    6201:	48 8d 7d a0	leaq	-0x60(%rbp), %rdi
    6205:	4c 89 e6	movq	%r12, %rsi
    6208:	e8 13 0c 00 00	callq	__ZN8XXHash323addEPKvy ## XXHash32::add(void const*, unsigned long long)
    620d:	4c 89 e7	movq	%r12, %rdi
    6210:	e8 a7 27 02 00	callq	0x289bc ## symbol stub for: __ZdaPv
    6215:	48 8b 4d c8	movq	-0x38(%rbp), %rcx
    6219:	48 83 f9 10	cmpq	$0x10, %rcx
    621d:	72 1f	jb	0x623e
    621f:	8b 45 a0	movl	-0x60(%rbp), %eax
    6222:	d1 c0	roll	%eax
    6224:	8b 55 a4	movl	-0x5c(%rbp), %edx
    6227:	c1 c2 07	roll	$0x7, %edx
    622a:	01 c2	addl	%eax, %edx
    622c:	8b 75 a8	movl	-0x58(%rbp), %esi
    622f:	c1 c6 0c	roll	$0xc, %esi
    6232:	01 d6	addl	%edx, %esi
    6234:	8b 45 ac	movl	-0x54(%rbp), %eax
    6237:	c1 c0 12	roll	$0x12, %eax
    623a:	01 f0	addl	%esi, %eax
    623c:	eb 08	jmp	0x6246
    623e:	b8 b1 67 56 16	movl	$0x165667b1, %eax
    6243:	03 45 a8	addl	-0x58(%rbp), %eax
    6246:	01 c8	addl	%ecx, %eax
    6248:	8b 55 c0	movl	-0x40(%rbp), %edx
    624b:	48 8d 4c 15 b0	leaq	-0x50(%rbp,%rdx), %rcx
    6250:	48 83 fa 04	cmpq	$0x4, %rdx
    6254:	73 0d	jae	0x6263
    6256:	48 8d 55 b0	leaq	-0x50(%rbp), %rdx
    625a:	48 8b bd f8 fd ff ff	movq	-0x208(%rbp), %rdi
    6261:	eb 2e	jmp	0x6291
    6263:	48 8d 75 b0	leaq	-0x50(%rbp), %rsi
    6267:	48 8b bd f8 fd ff ff	movq	-0x208(%rbp), %rdi
    626e:	66 90	nop
    6270:	69 16 3d ae b2 c2	imull	$0xc2b2ae3d, (%rsi), %edx
    6276:	01 c2	addl	%eax, %edx
    6278:	c1 c2 11	roll	$0x11, %edx
    627b:	69 c2 2f eb d4 27	imull	$0x27d4eb2f, %edx, %eax
    6281:	48 8d 56 04	leaq	0x4(%rsi), %rdx
    6285:	48 83 c6 08	addq	$0x8, %rsi
    6289:	48 39 ce	cmpq	%rcx, %rsi
    628c:	48 89 d6	movq	%rdx, %rsi
    628f:	76 df	jbe	0x6270
    6291:	48 39 ca	cmpq	%rcx, %rdx
    6294:	74 26	je	0x62bc
    6296:	66 2e 0f 1f 84 00 00 00 00 00	nopw	%cs:(%rax,%rax)
    62a0:	0f b6 32	movzbl	(%rdx), %esi
    62a3:	48 ff c2	incq	%rdx
    62a6:	69 f6 b1 67 56 16	imull	$0x165667b1, %esi, %esi
    62ac:	01 c6	addl	%eax, %esi
    62ae:	c1 c6 0b	roll	$0xb, %esi
    62b1:	69 c6 b1 79 37 9e	imull	$0x9e3779b1, %esi, %eax
    62b7:	48 39 d1	cmpq	%rdx, %rcx
    62ba:	75 e4	jne	0x62a0
    62bc:	89 c1	movl	%eax, %ecx
    62be:	c1 e9 0f	shrl	$0xf, %ecx
    62c1:	31 c1	xorl	%eax, %ecx
    62c3:	69 c1 77 ca eb 85	imull	$0x85ebca77, %ecx, %eax
    62c9:	89 c1	movl	%eax, %ecx
    62cb:	c1 e9 0d	shrl	$0xd, %ecx
    62ce:	31 c1	xorl	%eax, %ecx
    62d0:	69 c1 3d ae b2 c2	imull	$0xc2b2ae3d, %ecx, %eax
    62d6:	89 c1	movl	%eax, %ecx
    62d8:	c1 e9 10	shrl	$0x10, %ecx
    62db:	31 c1	xorl	%eax, %ecx
    62dd:	41 39 ce	cmpl	%ecx, %r14d
    62e0:	0f 85 9b 06 00 00	jne	0x6981
    62e6:	45 31 ff	xorl	%r15d, %r15d
    62e9:	be 0e 00 00 00	movl	$0xe, %esi
    62ee:	48 8b 9d 20 fe ff ff	movq	-0x1e0(%rbp), %rbx
    62f5:	48 89 df	movq	%rbx, %rdi
    62f8:	31 d2	xorl	%edx, %edx
    62fa:	e8 65 27 02 00	callq	0x28a64 ## symbol stub for: _fseek
    62ff:	c7 85 2c fe ff ff 00 00 00 00	movl	$0x0, -0x1d4(%rbp)
    6309:	48 8d bd 2c fe ff ff	leaq	-0x1d4(%rbp), %rdi
    6310:	be 01 00 00 00	movl	$0x1, %esi
    6315:	ba 04 00 00 00	movl	$0x4, %edx
    631a:	48 89 d9	movq	%rbx, %rcx
    631d:	e8 36 27 02 00	callq	0x28a58 ## symbol stub for: _fread
    6322:	8b 85 2c fe ff ff	movl	-0x1d4(%rbp), %eax
    6328:	41 89 c4	movl	%eax, %r12d
    632b:	41 0f cc	bswapl	%r12d
    632e:	44 89 a5 2c fe ff ff	movl	%r12d, -0x1d4(%rbp)
    6335:	0f 57 c0	xorps	%xmm0, %xmm0
    6338:	0f 29 85 00 fe ff ff	movaps	%xmm0, -0x200(%rbp)
    633f:	48 c7 85 10 fe ff ff 00 00 00 00	movq	$0x0, -0x1f0(%rbp)
    634a:	85 c0	testl	%eax, %eax
    634c:	0f 84 4f 06 00 00	je	0x69a1
    6352:	45 31 ed	xorl	%r13d, %r13d
    6355:	66 2e 0f 1f 84 00 00 00 00 00	nopw	%cs:(%rax,%rax)
    635f:	90	nop
    6360:	0f 57 c0	xorps	%xmm0, %xmm0
    6363:	0f 29 85 b0 fd ff ff	movaps	%xmm0, -0x250(%rbp)
    636a:	48 c7 85 c0 fd ff ff 00 00 00 00	movq	$0x0, -0x240(%rbp)
    6375:	c7 85 f0 fd ff ff 00 00 00 00	movl	$0x0, -0x210(%rbp)
    637f:	45 39 e5	cmpl	%r12d, %r13d
    6382:	0f 85 88 00 00 00	jne	0x6410
    6388:	ba 14 00 00 00	movl	$0x14, %edx
    638d:	48 8b 3d a4 5c 02 00	movq	0x25ca4(%rip), %rdi ## literal pool symbol address: __ZNSt3__14coutE
    6394:	48 8d 35 e2 4b 02 00	leaq	0x24be2(%rip), %rsi ## literal pool for: "crr_no_file == nfile"
    639b:	e8 90 0e 00 00	callq	__ZNSt3__124__put_character_sequenceIcNS_11char_traitsIcEEEERNS_13basic_ostreamIT_T0_EES7_PKS4_m ## std::__1::basic_ostream<char, std::__1::char_traits<char>>& std::__1::__put_character_sequence<char, std::__1::char_traits<char>>(std::__1::basic_ostream<char, std::__1::char_traits<char>>&, char const*, unsigned long)
    63a0:	49 89 c6	movq	%rax, %r14
    63a3:	48 8b 00	movq	(%rax), %rax
    63a6:	48 8b 70 e8	movq	-0x18(%rax), %rsi
    63aa:	4c 01 f6	addq	%r14, %rsi
    63ad:	48 8d bd 30 fe ff ff	leaq	-0x1d0(%rbp), %rdi
    63b4:	e8 37 25 02 00	callq	0x288f0 ## symbol stub for: __ZNKSt3__18ios_base6getlocEv
    63b9:	48 8d bd 30 fe ff ff	leaq	-0x1d0(%rbp), %rdi
    63c0:	48 8b 35 79 5c 02 00	movq	0x25c79(%rip), %rsi ## literal pool symbol address: __ZNSt3__15ctypeIcE2idE
    63c7:	e8 1e 25 02 00	callq	0x288ea ## symbol stub for: __ZNKSt3__16locale9use_facetERNS0_2idE
    63cc:	48 8b 08	movq	(%rax), %rcx
    63cf:	48 89 c7	movq	%rax, %rdi
    63d2:	be 0a 00 00 00	movl	$0xa, %esi
    63d7:	ff 51 38	callq	*0x38(%rcx)
    63da:	89 c3	movl	%eax, %ebx
    63dc:	48 8d bd 30 fe ff ff	leaq	-0x1d0(%rbp), %rdi
    63e3:	e8 a4 25 02 00	callq	0x2898c ## symbol stub for: __ZNSt3__16localeD1Ev
    63e8:	0f be f3	movsbl	%bl, %esi
    63eb:	4c 89 f7	movq	%r14, %rdi
    63ee:	e8 51 25 02 00	callq	0x28944 ## symbol stub for: __ZNSt3__113basic_ostreamIcNS_11char_traitsIcEEE3putEc
    63f3:	bb 04 00 00 00	movl	$0x4, %ebx
    63f8:	4c 89 f7	movq	%r14, %rdi
    63fb:	e8 4a 25 02 00	callq	0x2894a ## symbol stub for: __ZNSt3__113basic_ostreamIcNS_11char_traitsIcEEE5flushEv
    6400:	45 89 e5	movl	%r12d, %r13d
    6403:	e9 58 01 00 00	jmp	0x6560
    6408:	0f 1f 84 00 00 00 00 00	nopl	(%rax,%rax)
    6410:	48 8b bd 20 fe ff ff	movq	-0x1e0(%rbp), %rdi
    6417:	48 8d b5 f0 fd ff ff	leaq	-0x210(%rbp), %rsi
    641e:	48 8d 95 b0 fd ff ff	leaq	-0x250(%rbp), %rdx
    6425:	e8 c6 f8 ff ff	callq	__Z11read_headerP7__sFILERiRNSt3__112basic_stringIcNS2_11char_traitsIcEENS2_9allocatorIcEEEE ## read_header(__sFILE*, int&, std::__1::basic_string<char, std::__1::char_traits<char>, std::__1::allocator<char>>&)
    642a:	85 c0	testl	%eax, %eax
    642c:	78 59	js	0x6487
    642e:	83 f8 01	cmpl	$0x1, %eax
    6431:	74 14	je	0x6447
    6433:	48 8b bd 20 fe ff ff	movq	-0x1e0(%rbp), %rdi
    643a:	e8 fb 25 02 00	callq	0x28a3a ## symbol stub for: _feof
    643f:	85 c0	testl	%eax, %eax
    6441:	0f 84 4e 01 00 00	je	0x6595
    6447:	48 8b bd f8 fd ff ff	movq	-0x208(%rbp), %rdi
    644e:	48 8d 35 56 4b 02 00	leaq	0x24b56(%rip), %rsi ## literal pool for: "EOF while restoring"
    6455:	e8 b4 24 02 00	callq	0x2890e ## symbol stub for: __ZNSt3__112basic_stringIcNS_11char_traitsIcEENS_9allocatorIcEEE6appendEPKc
    645a:	48 8b bd 20 fe ff ff	movq	-0x1e0(%rbp), %rdi
    6461:	e8 ce 25 02 00	callq	0x28a34 ## symbol stub for: _fclose
    6466:	c7 85 f4 fd ff ff 98 ff ff ff	movl	$0xffffff98, -0x20c(%rbp)
    6470:	bb 01 00 00 00	movl	$0x1, %ebx
    6475:	f6 85 b0 fd ff ff 01	testb	$0x1, -0x250(%rbp)
    647c:	0f 85 e7 00 00 00	jne	0x6569
    6482:	e9 ee 00 00 00	jmp	0x6575
    6487:	48 8d 9d d8 fd ff ff	leaq	-0x228(%rbp), %rbx
    648e:	48 89 df	movq	%rbx, %rdi
    6491:	89 c6	movl	%eax, %esi
    6493:	e8 0c 25 02 00	callq	0x289a4 ## symbol stub for: __ZNSt3__19to_stringEi
    6498:	48 89 df	movq	%rbx, %rdi
    649b:	31 f6	xorl	%esi, %esi
    649d:	48 8d 15 ee 4a 02 00	leaq	0x24aee(%rip), %rdx ## literal pool for: "read header fail. error:"
    64a4:	e8 77 24 02 00	callq	0x28920 ## symbol stub for: __ZNSt3__112basic_stringIcNS_11char_traitsIcEENS_9allocatorIcEEE6insertEmPKc
    64a9:	48 8b 48 10	movq	0x10(%rax), %rcx
    64ad:	48 89 8d 40 fe ff ff	movq	%rcx, -0x1c0(%rbp)
    64b4:	48 8b 08	movq	(%rax), %rcx
    64b7:	48 8b 50 08	movq	0x8(%rax), %rdx
    64bb:	48 89 95 38 fe ff ff	movq	%rdx, -0x1c8(%rbp)
    64c2:	48 89 8d 30 fe ff ff	movq	%rcx, -0x1d0(%rbp)
    64c9:	48 c7 00 00 00 00 00	movq	$0x0, (%rax)
    64d0:	48 c7 40 08 00 00 00 00	movq	$0x0, 0x8(%rax)
    64d8:	48 c7 40 10 00 00 00 00	movq	$0x0, 0x10(%rax)
    64e0:	0f b6 95 30 fe ff ff	movzbl	-0x1d0(%rbp), %edx
    64e7:	f6 c2 01	testb	$0x1, %dl
    64ea:	74 10	je	0x64fc
    64ec:	48 8b b5 40 fe ff ff	movq	-0x1c0(%rbp), %rsi
    64f3:	48 8b 95 38 fe ff ff	movq	-0x1c8(%rbp), %rdx
    64fa:	eb 0a	jmp	0x6506
    64fc:	48 d1 ea	shrq	%rdx
    64ff:	48 8d b5 31 fe ff ff	leaq	-0x1cf(%rbp), %rsi
    6506:	48 8b bd f8 fd ff ff	movq	-0x208(%rbp), %rdi
    650d:	e8 02 24 02 00	callq	0x28914 ## symbol stub for: __ZNSt3__112basic_stringIcNS_11char_traitsIcEENS_9allocatorIcEEE6appendEPKcm
    6512:	f6 85 30 fe ff ff 01	testb	$0x1, -0x1d0(%rbp)
    6519:	74 0c	je	0x6527
    651b:	48 8b bd 40 fe ff ff	movq	-0x1c0(%rbp), %rdi
    6522:	e8 9b 24 02 00	callq	0x289c2 ## symbol stub for: __ZdlPv
    6527:	f6 85 d8 fd ff ff 01	testb	$0x1, -0x228(%rbp)
    652e:	74 0c	je	0x653c
    6530:	48 8b bd e8 fd ff ff	movq	-0x218(%rbp), %rdi
    6537:	e8 86 24 02 00	callq	0x289c2 ## symbol stub for: __ZdlPv
    653c:	48 8b bd 20 fe ff ff	movq	-0x1e0(%rbp), %rdi
    6543:	e8 ec 24 02 00	callq	0x28a34 ## symbol stub for: _fclose
    6548:	c7 85 f4 fd ff ff 99 ff ff ff	movl	$0xffffff99, -0x20c(%rbp)
    6552:	bb 01 00 00 00	movl	$0x1, %ebx
    6557:	66 0f 1f 84 00 00 00 00 00	nopw	(%rax,%rax)
    6560:	f6 85 b0 fd ff ff 01	testb	$0x1, -0x250(%rbp)
    6567:	74 0c	je	0x6575
    6569:	48 8b bd c0 fd ff ff	movq	-0x240(%rbp), %rdi
    6570:	e8 4d 24 02 00	callq	0x289c2 ## symbol stub for: __ZdlPv
    6575:	85 db	testl	%ebx, %ebx
    6577:	0f 85 1b 04 00 00	jne	0x6998
    657d:	41 ff c7	incl	%r15d
    6580:	44 8b a5 2c fe ff ff	movl	-0x1d4(%rbp), %r12d
    6587:	45 39 e7	cmpl	%r12d, %r15d
    658a:	0f 82 d0 fd ff ff	jb	0x6360
    6590:	e9 0c 04 00 00	jmp	0x69a1
    6595:	48 8d bd d8 fd ff ff	leaq	-0x228(%rbp), %rdi
    659c:	48 8b b5 a0 fd ff ff	movq	-0x260(%rbp), %rsi
    65a3:	48 8d 95 b0 fd ff ff	leaq	-0x250(%rbp), %rdx
    65aa:	e8 41 0a 00 00	callq	__ZNSt3__1plIcNS_11char_traitsIcEENS_9allocatorIcEEEENS_12basic_stringIT_T0_T1_EERKS9_SB_ ## std::__1::basic_string<char, std::__1::char_traits<char>, std::__1::allocator<char>> std::__1::operator+<char, std::__1::char_traits<char>, std::__1::allocator<char>>(std::__1::basic_string<char, std::__1::char_traits<char>, std::__1::allocator<char>> const&, std::__1::basic_string<char, std::__1::char_traits<char>, std::__1::allocator<char>> const&)
    65af:	ba 0c 00 00 00	movl	$0xc, %edx
    65b4:	48 8b 3d 7d 5a 02 00	movq	0x25a7d(%rip), %rdi ## literal pool symbol address: __ZNSt3__14coutE
    65bb:	48 8d 35 fd 49 02 00	leaq	0x249fd(%rip), %rsi ## literal pool for: "found file: "
    65c2:	e8 69 0c 00 00	callq	__ZNSt3__124__put_character_sequenceIcNS_11char_traitsIcEEEERNS_13basic_ostreamIT_T0_EES7_PKS4_m ## std::__1::basic_ostream<char, std::__1::char_traits<char>>& std::__1::__put_character_sequence<char, std::__1::char_traits<char>>(std::__1::basic_ostream<char, std::__1::char_traits<char>>&, char const*, unsigned long)
    65c7:	0f b6 95 d8 fd ff ff	movzbl	-0x228(%rbp), %edx
    65ce:	f6 c2 01	testb	$0x1, %dl
    65d1:	74 10	je	0x65e3
    65d3:	48 8b b5 e8 fd ff ff	movq	-0x218(%rbp), %rsi
    65da:	48 8b 95 e0 fd ff ff	movq	-0x220(%rbp), %rdx
    65e1:	eb 0a	jmp	0x65ed
    65e3:	48 d1 ea	shrq	%rdx
    65e6:	48 8d b5 d9 fd ff ff	leaq	-0x227(%rbp), %rsi
    65ed:	48 89 c7	movq	%rax, %rdi
    65f0:	e8 3b 0c 00 00	callq	__ZNSt3__124__put_character_sequenceIcNS_11char_traitsIcEEEERNS_13basic_ostreamIT_T0_EES7_PKS4_m ## std::__1::basic_ostream<char, std::__1::char_traits<char>>& std::__1::__put_character_sequence<char, std::__1::char_traits<char>>(std::__1::basic_ostream<char, std::__1::char_traits<char>>&, char const*, unsigned long)
    65f5:	48 89 c3	movq	%rax, %rbx
    65f8:	48 8b 00	movq	(%rax), %rax
    65fb:	48 8b 70 e8	movq	-0x18(%rax), %rsi
    65ff:	48 01 de	addq	%rbx, %rsi
    6602:	48 8d bd 30 fe ff ff	leaq	-0x1d0(%rbp), %rdi
    6609:	e8 e2 22 02 00	callq	0x288f0 ## symbol stub for: __ZNKSt3__18ios_base6getlocEv
    660e:	48 8d bd 30 fe ff ff	leaq	-0x1d0(%rbp), %rdi
    6615:	48 8b 35 24 5a 02 00	movq	0x25a24(%rip), %rsi ## literal pool symbol address: __ZNSt3__15ctypeIcE2idE
    661c:	e8 c9 22 02 00	callq	0x288ea ## symbol stub for: __ZNKSt3__16locale9use_facetERNS0_2idE
    6621:	48 8b 08	movq	(%rax), %rcx
    6624:	48 89 c7	movq	%rax, %rdi
    6627:	be 0a 00 00 00	movl	$0xa, %esi
    662c:	ff 51 38	callq	*0x38(%rcx)
    662f:	41 89 c6	movl	%eax, %r14d
    6632:	48 8d bd 30 fe ff ff	leaq	-0x1d0(%rbp), %rdi
    6639:	e8 4e 23 02 00	callq	0x2898c ## symbol stub for: __ZNSt3__16localeD1Ev
    663e:	41 0f be f6	movsbl	%r14b, %esi
    6642:	48 89 df	movq	%rbx, %rdi
    6645:	e8 fa 22 02 00	callq	0x28944 ## symbol stub for: __ZNSt3__113basic_ostreamIcNS_11char_traitsIcEEE3putEc
    664a:	48 89 df	movq	%rbx, %rdi
    664d:	e8 f8 22 02 00	callq	0x2894a ## symbol stub for: __ZNSt3__113basic_ostreamIcNS_11char_traitsIcEEE5flushEv
    6652:	48 8d bd 30 fe ff ff	leaq	-0x1d0(%rbp), %rdi
    6659:	48 8d b5 d8 fd ff ff	leaq	-0x228(%rbp), %rsi
    6660:	e8 d3 22 02 00	callq	0x28938 ## symbol stub for: __ZNSt3__112basic_stringIcNS_11char_traitsIcEENS_9allocatorIcEEEC1ERKS5_
    6665:	8b bd f0 fd ff ff	movl	-0x210(%rbp), %edi
    666b:	89 bd 48 fe ff ff	movl	%edi, -0x1b8(%rbp)
    6671:	c6 85 4c fe ff ff 00	movb	$0x0, -0x1b4(%rbp)
    6678:	4c 8b a5 08 fe ff ff	movq	-0x1f8(%rbp), %r12
    667f:	4c 8b 85 10 fe ff ff	movq	-0x1f0(%rbp), %r8
    6686:	4d 39 c4	cmpq	%r8, %r12
    6689:	73 5e	jae	0x66e9
    668b:	48 8b 85 40 fe ff ff	movq	-0x1c0(%rbp), %rax
    6692:	49 89 44 24 10	movq	%rax, 0x10(%r12)
    6697:	48 8b 85 30 fe ff ff	movq	-0x1d0(%rbp), %rax
    669e:	48 8b 8d 38 fe ff ff	movq	-0x1c8(%rbp), %rcx
    66a5:	49 89 4c 24 08	movq	%rcx, 0x8(%r12)
    66aa:	49 89 04 24	movq	%rax, (%r12)
    66ae:	0f 57 c0	xorps	%xmm0, %xmm0
    66b1:	0f 29 85 30 fe ff ff	movaps	%xmm0, -0x1d0(%rbp)
    66b8:	48 c7 85 40 fe ff ff 00 00 00 00	movq	$0x0, -0x1c0(%rbp)
    66c3:	8b 85 48 fe ff ff	movl	-0x1b8(%rbp), %eax
    66c9:	41 89 44 24 18	movl	%eax, 0x18(%r12)
    66ce:	8a 85 4c fe ff ff	movb	-0x1b4(%rbp), %al
    66d4:	41 88 44 24 1c	movb	%al, 0x1c(%r12)
    66d9:	49 83 c4 20	addq	$0x20, %r12
    66dd:	4c 89 a5 08 fe ff ff	movq	%r12, -0x1f8(%rbp)
    66e4:	e9 30 02 00 00	jmp	0x6919
    66e9:	4c 8b b5 00 fe ff ff	movq	-0x200(%rbp), %r14
    66f0:	4c 89 e3	movq	%r12, %rbx
    66f3:	4c 29 f3	subq	%r14, %rbx
    66f6:	48 c1 fb 05	sarq	$0x5, %rbx
    66fa:	48 8d 43 01	leaq	0x1(%rbx), %rax
    66fe:	48 89 c1	movq	%rax, %rcx
    6701:	48 c1 e9 3b	shrq	$0x3b, %rcx
    6705:	0f 85 c8 04 00 00	jne	0x6bd3
    670b:	4d 29 f0	subq	%r14, %r8
    670e:	4c 89 c1	movq	%r8, %rcx
    6711:	48 c1 f9 05	sarq	$0x5, %rcx
    6715:	49 c1 f8 04	sarq	$0x4, %r8
    6719:	49 39 c0	cmpq	%rax, %r8
    671c:	4c 0f 42 c0	cmovbq	%rax, %r8
    6720:	48 b8 ff ff ff ff ff ff ff 03	movabsq	$0x3ffffffffffffff, %rax
    672a:	48 39 c1	cmpq	%rax, %rcx
    672d:	48 b8 ff ff ff ff ff ff ff 07	movabsq	$0x7ffffffffffffff, %rax
    6737:	4c 0f 43 c0	cmovaeq	%rax, %r8
    673b:	4d 85 c0	testq	%r8, %r8
    673e:	74 31	je	0x6771
    6740:	89 bd d4 fd ff ff	movl	%edi, -0x22c(%rbp)
    6746:	49 39 c0	cmpq	%rax, %r8
    6749:	0f 87 92 04 00 00	ja	0x6be1
    674f:	4c 89 85 a8 fd ff ff	movq	%r8, -0x258(%rbp)
    6756:	4c 89 c7	movq	%r8, %rdi
    6759:	48 c1 e7 05	shlq	$0x5, %rdi
    675d:	e8 6c 22 02 00	callq	0x289ce ## symbol stub for: __Znwm
    6762:	4c 8b 85 a8 fd ff ff	movq	-0x258(%rbp), %r8
    6769:	8b bd d4 fd ff ff	movl	-0x22c(%rbp), %edi
    676f:	eb 02	jmp	0x6773
    6771:	31 c0	xorl	%eax, %eax
    6773:	48 c1 e3 05	shlq	$0x5, %rbx
    6777:	48 8d 0c 18	leaq	(%rax,%rbx), %rcx
    677b:	49 c1 e0 05	shlq	$0x5, %r8
    677f:	49 01 c0	addq	%rax, %r8
    6782:	48 8b 95 40 fe ff ff	movq	-0x1c0(%rbp), %rdx
    6789:	48 89 54 18 10	movq	%rdx, 0x10(%rax,%rbx)
    678e:	48 8b 95 30 fe ff ff	movq	-0x1d0(%rbp), %rdx
    6795:	48 8b b5 38 fe ff ff	movq	-0x1c8(%rbp), %rsi
    679c:	48 89 74 18 08	movq	%rsi, 0x8(%rax,%rbx)
    67a1:	48 89 14 18	movq	%rdx, (%rax,%rbx)
    67a5:	0f 57 c0	xorps	%xmm0, %xmm0
    67a8:	0f 29 85 30 fe ff ff	movaps	%xmm0, -0x1d0(%rbp)
    67af:	48 c7 85 40 fe ff ff 00 00 00 00	movq	$0x0, -0x1c0(%rbp)
    67ba:	89 7c 18 18	movl	%edi, 0x18(%rax,%rbx)
    67be:	c6 44 18 1c 00	movb	$0x0, 0x1c(%rax,%rbx)
    67c3:	48 8d 44 18 20	leaq	0x20(%rax,%rbx), %rax
    67c8:	4c 89 e2	movq	%r12, %rdx
    67cb:	4c 29 f2	subq	%r14, %rdx
    67ce:	0f 84 1b 01 00 00	je	0x68ef
    67d4:	48 83 c2 e0	addq	$-0x20, %rdx
    67d8:	f6 c2 20	testb	$0x20, %dl
    67db:	75 4e	jne	0x682b
    67dd:	49 8b 74 24 f0	movq	-0x10(%r12), %rsi
    67e2:	48 89 71 f0	movq	%rsi, -0x10(%rcx)
    67e6:	49 8b 74 24 e0	movq	-0x20(%r12), %rsi
    67eb:	49 8b 7c 24 e8	movq	-0x18(%r12), %rdi
    67f0:	48 89 79 e8	movq	%rdi, -0x18(%rcx)
    67f4:	48 89 71 e0	movq	%rsi, -0x20(%rcx)
    67f8:	49 c7 44 24 e0 00 00 00 00	movq	$0x0, -0x20(%r12)
    6801:	49 c7 44 24 e8 00 00 00 00	movq	$0x0, -0x18(%r12)
    680a:	49 c7 44 24 f0 00 00 00 00	movq	$0x0, -0x10(%r12)
    6813:	41 8b 74 24 f8	movl	-0x8(%r12), %esi
    6818:	89 71 f8	movl	%esi, -0x8(%rcx)
    681b:	41 8a 5c 24 fc	movb	-0x4(%r12), %bl
    6820:	88 59 fc	movb	%bl, -0x4(%rcx)
    6823:	48 83 c1 e0	addq	$-0x20, %rcx
    6827:	49 83 c4 e0	addq	$-0x20, %r12
    682b:	48 83 fa 20	cmpq	$0x20, %rdx
    682f:	0f 82 aa 00 00 00	jb	0x68df
    6835:	66 2e 0f 1f 84 00 00 00 00 00	nopw	%cs:(%rax,%rax)
    683f:	90	nop
    6840:	49 8b 54 24 f0	movq	-0x10(%r12), %rdx
    6845:	48 89 51 f0	movq	%rdx, -0x10(%rcx)
    6849:	49 8b 54 24 e0	movq	-0x20(%r12), %rdx
    684e:	49 8b 74 24 e8	movq	-0x18(%r12), %rsi
    6853:	48 89 71 e8	movq	%rsi, -0x18(%rcx)
    6857:	48 89 51 e0	movq	%rdx, -0x20(%rcx)
    685b:	49 c7 44 24 e0 00 00 00 00	movq	$0x0, -0x20(%r12)
    6864:	49 c7 44 24 e8 00 00 00 00	movq	$0x0, -0x18(%r12)
    686d:	49 c7 44 24 f0 00 00 00 00	movq	$0x0, -0x10(%r12)
    6876:	41 8b 54 24 f8	movl	-0x8(%r12), %edx
    687b:	89 51 f8	movl	%edx, -0x8(%rcx)
    687e:	41 0f b6 54 24 fc	movzbl	-0x4(%r12), %edx
    6884:	88 51 fc	movb	%dl, -0x4(%rcx)
    6887:	49 8b 54 24 d0	movq	-0x30(%r12), %rdx
    688c:	48 89 51 d0	movq	%rdx, -0x30(%rcx)
    6890:	49 8b 54 24 c0	movq	-0x40(%r12), %rdx
    6895:	49 8b 74 24 c8	movq	-0x38(%r12), %rsi
    689a:	48 89 71 c8	movq	%rsi, -0x38(%rcx)
    689e:	48 89 51 c0	movq	%rdx, -0x40(%rcx)
    68a2:	49 c7 44 24 c0 00 00 00 00	movq	$0x0, -0x40(%r12)
    68ab:	49 c7 44 24 c8 00 00 00 00	movq	$0x0, -0x38(%r12)
    68b4:	49 c7 44 24 d0 00 00 00 00	movq	$0x0, -0x30(%r12)
    68bd:	41 8b 54 24 d8	movl	-0x28(%r12), %edx
    68c2:	89 51 d8	movl	%edx, -0x28(%rcx)
    68c5:	41 0f b6 54 24 dc	movzbl	-0x24(%r12), %edx
    68cb:	49 83 c4 c0	addq	$-0x40, %r12
    68cf:	88 51 dc	movb	%dl, -0x24(%rcx)
    68d2:	48 83 c1 c0	addq	$-0x40, %rcx
    68d6:	4d 39 e6	cmpq	%r12, %r14
    68d9:	0f 85 61 ff ff ff	jne	0x6840
    68df:	4c 8b b5 00 fe ff ff	movq	-0x200(%rbp), %r14
    68e6:	4c 8b a5 08 fe ff ff	movq	-0x1f8(%rbp), %r12
    68ed:	eb 03	jmp	0x68f2
    68ef:	4d 89 e6	movq	%r12, %r14
    68f2:	48 89 8d 00 fe ff ff	movq	%rcx, -0x200(%rbp)
    68f9:	48 89 85 08 fe ff ff	movq	%rax, -0x1f8(%rbp)
    6900:	4c 89 85 10 fe ff ff	movq	%r8, -0x1f0(%rbp)
    6907:	4d 39 f4	cmpq	%r14, %r12
    690a:	75 5c	jne	0x6968
    690c:	4d 85 f6	testq	%r14, %r14
    690f:	74 08	je	0x6919
    6911:	4c 89 f7	movq	%r14, %rdi
    6914:	e8 a9 20 02 00	callq	0x289c2 ## symbol stub for: __ZdlPv
    6919:	f6 85 30 fe ff ff 01	testb	$0x1, -0x1d0(%rbp)
    6920:	74 0c	je	0x692e
    6922:	48 8b bd 40 fe ff ff	movq	-0x1c0(%rbp), %rdi
    6929:	e8 94 20 02 00	callq	0x289c2 ## symbol stub for: __ZdlPv
    692e:	f6 85 d8 fd ff ff 01	testb	$0x1, -0x228(%rbp)
    6935:	74 0c	je	0x6943
    6937:	48 8b bd e8 fd ff ff	movq	-0x218(%rbp), %rdi
    693e:	e8 7f 20 02 00	callq	0x289c2 ## symbol stub for: __ZdlPv
    6943:	41 ff c5	incl	%r13d
    6946:	31 db	xorl	%ebx, %ebx
    6948:	f6 85 b0 fd ff ff 01	testb	$0x1, -0x250(%rbp)
    694f:	0f 85 14 fc ff ff	jne	0x6569
    6955:	e9 1b fc ff ff	jmp	0x6575
    695a:	66 0f 1f 44 00 00	nopw	(%rax,%rax)
    6960:	49 89 dc	movq	%rbx, %r12
    6963:	49 39 de	cmpq	%rbx, %r14
    6966:	74 a4	je	0x690c
    6968:	49 8d 5c 24 e0	leaq	-0x20(%r12), %rbx
    696d:	41 f6 44 24 e0 01	testb	$0x1, -0x20(%r12)
    6973:	74 eb	je	0x6960
    6975:	49 8b 7c 24 f0	movq	-0x10(%r12), %rdi
    697a:	e8 43 20 02 00	callq	0x289c2 ## symbol stub for: __ZdlPv
    697f:	eb df	jmp	0x6960
    6981:	48 8d 35 e3 45 02 00	leaq	0x245e3(%rip), %rsi ## literal pool for: "checksum mismatch"
    6988:	e8 81 1f 02 00	callq	0x2890e ## symbol stub for: __ZNSt3__112basic_stringIcNS_11char_traitsIcEENS_9allocatorIcEEE6appendEPKc
    698d:	41 bf 9a ff ff ff	movl	$0xffffff9a, %r15d
    6993:	e9 f8 01 00 00	jmp	0x6b90
    6998:	83 fb 04	cmpl	$0x4, %ebx
    699b:	0f 85 14 02 00 00	jne	0x6bb5
    69a1:	48 8b 3d 90 56 02 00	movq	0x25690(%rip), %rdi ## literal pool symbol address: __ZNSt3__14coutE
    69a8:	48 8d 35 1d 46 02 00	leaq	0x2461d(%rip), %rsi ## literal pool for: "start decompress"
    69af:	ba 10 00 00 00	movl	$0x10, %edx
    69b4:	e8 77 08 00 00	callq	__ZNSt3__124__put_character_sequenceIcNS_11char_traitsIcEEEERNS_13basic_ostreamIT_T0_EES7_PKS4_m ## std::__1::basic_ostream<char, std::__1::char_traits<char>>& std::__1::__put_character_sequence<char, std::__1::char_traits<char>>(std::__1::basic_ostream<char, std::__1::char_traits<char>>&, char const*, unsigned long)
    69b9:	48 89 c3	movq	%rax, %rbx
    69bc:	48 8b 00	movq	(%rax), %rax
    69bf:	48 8b 70 e8	movq	-0x18(%rax), %rsi
    69c3:	48 01 de	addq	%rbx, %rsi
    69c6:	48 8d bd 30 fe ff ff	leaq	-0x1d0(%rbp), %rdi
    69cd:	e8 1e 1f 02 00	callq	0x288f0 ## symbol stub for: __ZNKSt3__18ios_base6getlocEv
    69d2:	48 8b 35 67 56 02 00	movq	0x25667(%rip), %rsi ## literal pool symbol address: __ZNSt3__15ctypeIcE2idE
    69d9:	48 8d bd 30 fe ff ff	leaq	-0x1d0(%rbp), %rdi
    69e0:	e8 05 1f 02 00	callq	0x288ea ## symbol stub for: __ZNKSt3__16locale9use_facetERNS0_2idE
    69e5:	48 8b 08	movq	(%rax), %rcx
    69e8:	48 89 c7	movq	%rax, %rdi
    69eb:	be 0a 00 00 00	movl	$0xa, %esi
    69f0:	ff 51 38	callq	*0x38(%rcx)
    69f3:	41 89 c7	movl	%eax, %r15d
    69f6:	48 8d bd 30 fe ff ff	leaq	-0x1d0(%rbp), %rdi
    69fd:	e8 8a 1f 02 00	callq	0x2898c ## symbol stub for: __ZNSt3__16localeD1Ev
    6a02:	41 0f be f7	movsbl	%r15b, %esi
    6a06:	48 89 df	movq	%rbx, %rdi
    6a09:	e8 36 1f 02 00	callq	0x28944 ## symbol stub for: __ZNSt3__113basic_ostreamIcNS_11char_traitsIcEEE3putEc
    6a0e:	48 89 df	movq	%rbx, %rdi
    6a11:	e8 34 1f 02 00	callq	0x2894a ## symbol stub for: __ZNSt3__113basic_ostreamIcNS_11char_traitsIcEEE5flushEv
    6a16:	48 8b 3d 1b 56 02 00	movq	0x2561b(%rip), %rdi ## literal pool symbol address: __ZNSt3__14coutE
    6a1d:	48 8d 35 b9 45 02 00	leaq	0x245b9(%rip), %rsi ## literal pool for: "list_files.size(): "
    6a24:	ba 13 00 00 00	movl	$0x13, %edx
    6a29:	e8 02 08 00 00	callq	__ZNSt3__124__put_character_sequenceIcNS_11char_traitsIcEEEERNS_13basic_ostreamIT_T0_EES7_PKS4_m ## std::__1::basic_ostream<char, std::__1::char_traits<char>>& std::__1::__put_character_sequence<char, std::__1::char_traits<char>>(std::__1::basic_ostream<char, std::__1::char_traits<char>>&, char const*, unsigned long)
    6a2e:	48 8b b5 08 fe ff ff	movq	-0x1f8(%rbp), %rsi
    6a35:	48 2b b5 00 fe ff ff	subq	-0x200(%rbp), %rsi
    6a3c:	48 c1 fe 05	sarq	$0x5, %rsi
    6a40:	48 89 c7	movq	%rax, %rdi
    6a43:	e8 14 1f 02 00	callq	0x2895c ## symbol stub for: __ZNSt3__113basic_ostreamIcNS_11char_traitsIcEEElsEm
    6a48:	48 89 c3	movq	%rax, %rbx
    6a4b:	48 8b 00	movq	(%rax), %rax
    6a4e:	48 8b 70 e8	movq	-0x18(%rax), %rsi
    6a52:	48 01 de	addq	%rbx, %rsi
    6a55:	48 8d bd 30 fe ff ff	leaq	-0x1d0(%rbp), %rdi
    6a5c:	e8 8f 1e 02 00	callq	0x288f0 ## symbol stub for: __ZNKSt3__18ios_base6getlocEv
    6a61:	48 8b 35 d8 55 02 00	movq	0x255d8(%rip), %rsi ## literal pool symbol address: __ZNSt3__15ctypeIcE2idE
    6a68:	48 8d bd 30 fe ff ff	leaq	-0x1d0(%rbp), %rdi
    6a6f:	e8 76 1e 02 00	callq	0x288ea ## symbol stub for: __ZNKSt3__16locale9use_facetERNS0_2idE
    6a74:	48 8b 08	movq	(%rax), %rcx
    6a77:	48 89 c7	movq	%rax, %rdi
    6a7a:	be 0a 00 00 00	movl	$0xa, %esi
    6a7f:	ff 51 38	callq	*0x38(%rcx)
    6a82:	41 89 c7	movl	%eax, %r15d
    6a85:	48 8d bd 30 fe ff ff	leaq	-0x1d0(%rbp), %rdi
    6a8c:	e8 fb 1e 02 00	callq	0x2898c ## symbol stub for: __ZNSt3__16localeD1Ev
    6a91:	41 0f be f7	movsbl	%r15b, %esi
    6a95:	48 89 df	movq	%rbx, %rdi
    6a98:	e8 a7 1e 02 00	callq	0x28944 ## symbol stub for: __ZNSt3__113basic_ostreamIcNS_11char_traitsIcEEE3putEc
    6a9d:	48 89 df	movq	%rbx, %rdi
    6aa0:	e8 a5 1e 02 00	callq	0x2894a ## symbol stub for: __ZNSt3__113basic_ostreamIcNS_11char_traitsIcEEE5flushEv
    6aa5:	48 8d bd 30 fe ff ff	leaq	-0x1d0(%rbp), %rdi
    6aac:	31 f6	xorl	%esi, %esi
    6aae:	e8 4d 6b 00 00	callq	__ZN6ZCUtilC1Eb ## ZCUtil::ZCUtil(bool)
    6ab3:	8b 9d 28 fe ff ff	movl	-0x1d8(%rbp), %ebx
    6ab9:	4c 8b b5 20 fe ff ff	movq	-0x1e0(%rbp), %r14
    6ac0:	4c 89 f7	movq	%r14, %rdi
    6ac3:	e8 a2 1f 02 00	callq	0x28a6a ## symbol stub for: _ftell
    6ac8:	29 c3	subl	%eax, %ebx
    6aca:	48 8d bd 30 fe ff ff	leaq	-0x1d0(%rbp), %rdi
    6ad1:	48 8d 95 00 fe ff ff	leaq	-0x200(%rbp), %rdx
    6ad8:	4c 89 f6	movq	%r14, %rsi
    6adb:	89 d9	movl	%ebx, %ecx
    6add:	e8 1e 73 00 00	callq	__ZN6ZCUtil17DecompressProcessEP7__sFILERKNSt3__16vectorINS2_5tupleIJNS2_12basic_stringIcNS2_11char_traitsIcEENS2_9allocatorIcEEEEibEEENS8_ISB_EEEEi ## ZCUtil::DecompressProcess(__sFILE*, std::__1::vector<std::__1::tuple<std::__1::basic_string<char, std::__1::char_traits<char>, std::__1::allocator<char>>, int, bool>, std::__1::allocator<std::__1::tuple<std::__1::basic_string<char, std::__1::char_traits<char>, std::__1::allocator<char>>, int, bool>>> const&, int)
    6ae2:	48 8b 9d f8 fd ff ff	movq	-0x208(%rbp), %rbx
    6ae9:	48 8d bd 30 fe ff ff	leaq	-0x1d0(%rbp), %rdi
    6af0:	e8 7b 6d 00 00	callq	__ZN6ZCUtil7IsErrorEv ## ZCUtil::IsError()
    6af5:	45 31 ff	xorl	%r15d, %r15d
    6af8:	84 c0	testb	%al, %al
    6afa:	74 15	je	0x6b11
    6afc:	41 bf fb ff ff ff	movl	$0xfffffffb, %r15d
    6b02:	48 8d 35 e8 44 02 00	leaq	0x244e8(%rip), %rsi ## literal pool for: "decompress fail"
    6b09:	48 89 df	movq	%rbx, %rdi
    6b0c:	e8 fd 1d 02 00	callq	0x2890e ## symbol stub for: __ZNSt3__112basic_stringIcNS_11char_traitsIcEENS_9allocatorIcEEE6appendEPKc
    6b11:	4c 89 f7	movq	%r14, %rdi
    6b14:	e8 1b 1f 02 00	callq	0x28a34 ## symbol stub for: _fclose
    6b19:	48 8d bd 30 fe ff ff	leaq	-0x1d0(%rbp), %rdi
    6b20:	e8 6b 78 00 00	callq	__ZN6ZCUtil4FreeEv ## ZCUtil::Free()
    6b25:	48 8d bd 00 ff ff ff	leaq	-0x100(%rbp), %rdi
    6b2c:	e8 55 1e 02 00	callq	0x28986 ## symbol stub for: __ZNSt3__15mutexD1Ev
    6b31:	48 8d bd c0 fe ff ff	leaq	-0x140(%rbp), %rdi
    6b38:	e8 49 1e 02 00	callq	0x28986 ## symbol stub for: __ZNSt3__15mutexD1Ev
    6b3d:	4c 8b b5 00 fe ff ff	movq	-0x200(%rbp), %r14
    6b44:	4d 85 f6	testq	%r14, %r14
    6b47:	74 47	je	0x6b90
    6b49:	48 8b 85 08 fe ff ff	movq	-0x1f8(%rbp), %rax
    6b50:	4c 39 f0	cmpq	%r14, %rax
    6b53:	75 13	jne	0x6b68
    6b55:	4c 89 f7	movq	%r14, %rdi
    6b58:	eb 2a	jmp	0x6b84
    6b5a:	66 0f 1f 44 00 00	nopw	(%rax,%rax)
    6b60:	48 89 d8	movq	%rbx, %rax
    6b63:	49 39 de	cmpq	%rbx, %r14
    6b66:	74 15	je	0x6b7d
    6b68:	48 8d 58 e0	leaq	-0x20(%rax), %rbx
    6b6c:	f6 40 e0 01	testb	$0x1, -0x20(%rax)
    6b70:	74 ee	je	0x6b60
    6b72:	48 8b 78 f0	movq	-0x10(%rax), %rdi
    6b76:	e8 47 1e 02 00	callq	0x289c2 ## symbol stub for: __ZdlPv
    6b7b:	eb e3	jmp	0x6b60
    6b7d:	48 8b bd 00 fe ff ff	movq	-0x200(%rbp), %rdi
    6b84:	4c 89 b5 08 fe ff ff	movq	%r14, -0x1f8(%rbp)
    6b8b:	e8 32 1e 02 00	callq	0x289c2 ## symbol stub for: __ZdlPv
    6b90:	48 8b 05 f1 54 02 00	movq	0x254f1(%rip), %rax ## literal pool symbol address: ___stack_chk_guard
    6b97:	48 8b 00	movq	(%rax), %rax
    6b9a:	48 3b 45 d0	cmpq	-0x30(%rbp), %rax
    6b9e:	75 2e	jne	0x6bce
    6ba0:	44 89 f8	movl	%r15d, %eax
    6ba3:	48 81 c4 38 02 00 00	addq	$0x238, %rsp
    6baa:	5b	popq	%rbx
    6bab:	41 5c	popq	%r12
    6bad:	41 5d	popq	%r13
    6baf:	41 5e	popq	%r14
    6bb1:	41 5f	popq	%r15
    6bb3:	5d	popq	%rbp
    6bb4:	c3	retq
    6bb5:	44 8b bd f4 fd ff ff	movl	-0x20c(%rbp), %r15d
    6bbc:	4c 8b b5 00 fe ff ff	movq	-0x200(%rbp), %r14
    6bc3:	4d 85 f6	testq	%r14, %r14
    6bc6:	0f 85 7d ff ff ff	jne	0x6b49
    6bcc:	eb c2	jmp	0x6b90
    6bce:	e8 43 1e 02 00	callq	0x28a16 ## symbol stub for: ___stack_chk_fail
    6bd3:	48 8d bd 00 fe ff ff	leaq	-0x200(%rbp), %rdi
    6bda:	e8 ff 1c 02 00	callq	0x288de ## symbol stub for: __ZNKSt3__120__vector_base_commonILb1EE20__throw_length_errorEv
    6bdf:	eb 05	jmp	0x6be6
    6be1:	e8 0a 09 00 00	callq	__ZNSt3__1L20__throw_length_errorEPKc ## std::__1::__throw_length_error(char const*)
    6be6:	0f 0b	ud2
    6be8:	e9 96 00 00 00	jmp	0x6c83
    6bed:	e9 91 00 00 00	jmp	0x6c83
    6bf2:	49 89 c6	movq	%rax, %r14
    6bf5:	f6 85 d8 fd ff ff 01	testb	$0x1, -0x228(%rbp)
    6bfc:	0f 84 9a 00 00 00	je	0x6c9c
    6c02:	e9 3f 01 00 00	jmp	0x6d46
    6c07:	49 89 c6	movq	%rax, %r14
    6c0a:	f6 85 b0 fd ff ff 01	testb	$0x1, -0x250(%rbp)
    6c11:	0f 84 92 00 00 00	je	0x6ca9
    6c17:	e9 9a 01 00 00	jmp	0x6db6
    6c1c:	48 89 c3	movq	%rax, %rbx
    6c1f:	48 8d bd 00 ff ff ff	leaq	-0x100(%rbp), %rdi
    6c26:	e8 5b 1d 02 00	callq	0x28986 ## symbol stub for: __ZNSt3__15mutexD1Ev
    6c2b:	48 8d bd c0 fe ff ff	leaq	-0x140(%rbp), %rdi
    6c32:	e8 4f 1d 02 00	callq	0x28986 ## symbol stub for: __ZNSt3__15mutexD1Ev
    6c37:	48 89 df	movq	%rbx, %rdi
    6c3a:	e8 91 b7 ff ff	callq	___clang_call_terminate
    6c3f:	e9 1d 01 00 00	jmp	0x6d61
    6c44:	49 89 c6	movq	%rax, %r14
    6c47:	48 8d bd 30 fe ff ff	leaq	-0x1d0(%rbp), %rdi
    6c4e:	e8 39 1d 02 00	callq	0x2898c ## symbol stub for: __ZNSt3__16localeD1Ev
    6c53:	f6 85 d8 fd ff ff 01	testb	$0x1, -0x228(%rbp)
    6c5a:	74 40	je	0x6c9c
    6c5c:	e9 e5 00 00 00	jmp	0x6d46
    6c61:	eb 00	jmp	0x6c63
    6c63:	49 89 c6	movq	%rax, %r14
    6c66:	48 8d bd 30 fe ff ff	leaq	-0x1d0(%rbp), %rdi
    6c6d:	e8 1a 1d 02 00	callq	0x2898c ## symbol stub for: __ZNSt3__16localeD1Ev
    6c72:	48 8b 9d 00 fe ff ff	movq	-0x200(%rbp), %rbx
    6c79:	48 85 db	testq	%rbx, %rbx
    6c7c:	74 3b	je	0x6cb9
    6c7e:	e9 4f 01 00 00	jmp	0x6dd2
    6c83:	49 89 c6	movq	%rax, %r14
    6c86:	f6 85 30 fe ff ff 01	testb	$0x1, -0x1d0(%rbp)
    6c8d:	75 34	jne	0x6cc3
    6c8f:	f6 85 d8 fd ff ff 01	testb	$0x1, -0x228(%rbp)
    6c96:	0f 85 aa 00 00 00	jne	0x6d46
    6c9c:	f6 85 b0 fd ff ff 01	testb	$0x1, -0x250(%rbp)
    6ca3:	0f 85 0d 01 00 00	jne	0x6db6
    6ca9:	48 8b 9d 00 fe ff ff	movq	-0x200(%rbp), %rbx
    6cb0:	48 85 db	testq	%rbx, %rbx
    6cb3:	0f 85 19 01 00 00	jne	0x6dd2
    6cb9:	4c 89 f7	movq	%r14, %rdi
    6cbc:	e8 11 1c 02 00	callq	0x288d2 ## symbol stub for: __Unwind_Resume
    6cc1:	0f 0b	ud2
    6cc3:	48 8b bd 40 fe ff ff	movq	-0x1c0(%rbp), %rdi
    6cca:	e8 f3 1c 02 00	callq	0x289c2 ## symbol stub for: __ZdlPv
    6ccf:	f6 85 d8 fd ff ff 01	testb	$0x1, -0x228(%rbp)
    6cd6:	74 c4	je	0x6c9c
    6cd8:	eb 6c	jmp	0x6d46
    6cda:	49 89 c6	movq	%rax, %r14
    6cdd:	f6 85 d8 fd ff ff 01	testb	$0x1, -0x228(%rbp)
    6ce4:	74 b6	je	0x6c9c
    6ce6:	eb 5e	jmp	0x6d46
    6ce8:	49 89 c6	movq	%rax, %r14
    6ceb:	f6 85 b0 fd ff ff 01	testb	$0x1, -0x250(%rbp)
    6cf2:	74 b5	je	0x6ca9
    6cf4:	e9 bd 00 00 00	jmp	0x6db6
    6cf9:	49 89 c6	movq	%rax, %r14
    6cfc:	48 8d bd 30 fe ff ff	leaq	-0x1d0(%rbp), %rdi
    6d03:	e8 88 76 00 00	callq	__ZN6ZCUtil4FreeEv ## ZCUtil::Free()
    6d08:	48 8d bd 00 ff ff ff	leaq	-0x100(%rbp), %rdi
    6d0f:	e8 72 1c 02 00	callq	0x28986 ## symbol stub for: __ZNSt3__15mutexD1Ev
    6d14:	48 8d bd c0 fe ff ff	leaq	-0x140(%rbp), %rdi
    6d1b:	e8 66 1c 02 00	callq	0x28986 ## symbol stub for: __ZNSt3__15mutexD1Ev
    6d20:	48 8b 9d 00 fe ff ff	movq	-0x200(%rbp), %rbx
    6d27:	48 85 db	testq	%rbx, %rbx
    6d2a:	74 8d	je	0x6cb9
    6d2c:	e9 a1 00 00 00	jmp	0x6dd2
    6d31:	e9 e6 fe ff ff	jmp	0x6c1c
    6d36:	49 89 c6	movq	%rax, %r14
    6d39:	f6 85 d8 fd ff ff 01	testb	$0x1, -0x228(%rbp)
    6d40:	0f 84 56 ff ff ff	je	0x6c9c
    6d46:	48 8b bd e8 fd ff ff	movq	-0x218(%rbp), %rdi
    6d4d:	e8 70 1c 02 00	callq	0x289c2 ## symbol stub for: __ZdlPv
    6d52:	f6 85 b0 fd ff ff 01	testb	$0x1, -0x250(%rbp)
    6d59:	0f 84 4a ff ff ff	je	0x6ca9
    6d5f:	eb 55	jmp	0x6db6
    6d61:	49 89 c6	movq	%rax, %r14
    6d64:	48 8b 9d 00 fe ff ff	movq	-0x200(%rbp), %rbx
    6d6b:	48 85 db	testq	%rbx, %rbx
    6d6e:	0f 84 45 ff ff ff	je	0x6cb9
    6d74:	eb 5c	jmp	0x6dd2
    6d76:	49 89 c6	movq	%rax, %r14
    6d79:	f6 85 b0 fd ff ff 01	testb	$0x1, -0x250(%rbp)
    6d80:	0f 84 23 ff ff ff	je	0x6ca9
    6d86:	eb 2e	jmp	0x6db6
    6d88:	49 89 c6	movq	%rax, %r14
    6d8b:	48 8d bd 30 fe ff ff	leaq	-0x1d0(%rbp), %rdi
    6d92:	e8 f5 1b 02 00	callq	0x2898c ## symbol stub for: __ZNSt3__16localeD1Ev
    6d97:	f6 85 b0 fd ff ff 01	testb	$0x1, -0x250(%rbp)
    6d9e:	0f 84 05 ff ff ff	je	0x6ca9
    6da4:	eb 10	jmp	0x6db6
    6da6:	49 89 c6	movq	%rax, %r14
    6da9:	f6 85 b0 fd ff ff 01	testb	$0x1, -0x250(%rbp)
    6db0:	0f 84 f3 fe ff ff	je	0x6ca9
    6db6:	48 8b bd c0 fd ff ff	movq	-0x240(%rbp), %rdi
    6dbd:	e8 00 1c 02 00	callq	0x289c2 ## symbol stub for: __ZdlPv
    6dc2:	48 8b 9d 00 fe ff ff	movq	-0x200(%rbp), %rbx
    6dc9:	48 85 db	testq	%rbx, %rbx
    6dcc:	0f 84 e7 fe ff ff	je	0x6cb9
    6dd2:	48 8b 85 08 fe ff ff	movq	-0x1f8(%rbp), %rax
    6dd9:	48 89 df	movq	%rbx, %rdi
    6ddc:	48 39 d8	cmpq	%rbx, %rax
    6ddf:	74 22	je	0x6e03
    6de1:	4c 8d 78 e0	leaq	-0x20(%rax), %r15
    6de5:	f6 40 e0 01	testb	$0x1, -0x20(%rax)
    6de9:	74 09	je	0x6df4
    6deb:	48 8b 78 f0	movq	-0x10(%rax), %rdi
    6def:	e8 ce 1b 02 00	callq	0x289c2 ## symbol stub for: __ZdlPv
    6df4:	4c 89 f8	movq	%r15, %rax
    6df7:	4c 39 fb	cmpq	%r15, %rbx
    6dfa:	75 e5	jne	0x6de1
    6dfc:	48 8b bd 00 fe ff ff	movq	-0x200(%rbp), %rdi
    6e03:	48 89 9d 08 fe ff ff	movq	%rbx, -0x1f8(%rbp)
    6e0a:	e8 b3 1b 02 00	callq	0x289c2 ## symbol stub for: __ZdlPv
    6e0f:	4c 89 f7	movq	%r14, %rdi
    6e12:	e8 bb 1a 02 00	callq	0x288d2 ## symbol stub for: __Unwind_Resume
    6e17:	0f 0b	ud2
    6e19:	0f 1f 80 00 00 00 00	nopl	(%rax)
__ZN8XXHash323addEPKvy:
    6e20:	55	pushq	%rbp
    6e21:	48 89 e5	movq	%rsp, %rbp
    6e24:	31 c0	xorl	%eax, %eax
    6e26:	48 85 f6	testq	%rsi, %rsi
    6e29:	0f 84 b5 01 00 00	je	0x6fe4
    6e2f:	48 85 d2	testq	%rdx, %rdx
    6e32:	0f 84 ac 01 00 00	je	0x6fe4
    6e38:	48 01 57 28	addq	%rdx, 0x28(%rdi)
    6e3c:	44 8b 5f 20	movl	0x20(%rdi), %r11d
    6e40:	49 8d 0c 13	leaq	(%r11,%rdx), %rcx
    6e44:	48 83 f9 0f	cmpq	$0xf, %rcx
    6e48:	0f 87 8c 00 00 00	ja	0x6eda
    6e4e:	45 89 d8	movl	%r11d, %r8d
    6e51:	41 ff c0	incl	%r8d
    6e54:	49 89 d2	movq	%rdx, %r10
    6e57:	44 8a 0e	movb	(%rsi), %r9b
    6e5a:	44 89 47 20	movl	%r8d, 0x20(%rdi)
    6e5e:	46 88 4c 1f 10	movb	%r9b, 0x10(%rdi,%r11)
    6e63:	b0 01	movb	$0x1, %al
    6e65:	49 ff ca	decq	%r10
    6e68:	0f 84 76 01 00 00	je	0x6fe4
    6e6e:	41 f6 c2 01	testb	$0x1, %r10b
    6e72:	74 1b	je	0x6e8f
    6e74:	44 8b 47 20	movl	0x20(%rdi), %r8d
    6e78:	4c 8d 52 fe	leaq	-0x2(%rdx), %r10
    6e7c:	44 8a 4e 01	movb	0x1(%rsi), %r9b
    6e80:	48 ff c6	incq	%rsi
    6e83:	41 8d 48 01	leal	0x1(%r8), %ecx
    6e87:	89 4f 20	movl	%ecx, 0x20(%rdi)
    6e8a:	46 88 4c 07 10	movb	%r9b, 0x10(%rdi,%r8)
    6e8f:	48 83 fa 02	cmpq	$0x2, %rdx
    6e93:	0f 84 4b 01 00 00	je	0x6fe4
    6e99:	31 d2	xorl	%edx, %edx
    6e9b:	0f 1f 44 00 00	nopl	(%rax,%rax)
    6ea0:	44 8b 4f 20	movl	0x20(%rdi), %r9d
    6ea4:	44 0f b6 44 16 01	movzbl	0x1(%rsi,%rdx), %r8d
    6eaa:	41 8d 49 01	leal	0x1(%r9), %ecx
    6eae:	89 4f 20	movl	%ecx, 0x20(%rdi)
    6eb1:	46 88 44 0f 10	movb	%r8b, 0x10(%rdi,%r9)
    6eb6:	44 8b 4f 20	movl	0x20(%rdi), %r9d
    6eba:	44 0f b6 44 16 02	movzbl	0x2(%rsi,%rdx), %r8d
    6ec0:	41 8d 49 01	leal	0x1(%r9), %ecx
    6ec4:	89 4f 20	movl	%ecx, 0x20(%rdi)
    6ec7:	46 88 44 0f 10	movb	%r8b, 0x10(%rdi,%r9)
    6ecc:	48 83 c2 02	addq	$0x2, %rdx
    6ed0:	49 39 d2	cmpq	%rdx, %r10
    6ed3:	75 cb	jne	0x6ea0
    6ed5:	e9 0a 01 00 00	jmp	0x6fe4
    6eda:	4c 8d 44 16 f0	leaq	-0x10(%rsi,%rdx), %r8
    6edf:	45 85 db	testl	%r11d, %r11d
    6ee2:	74 6f	je	0x6f53
    6ee4:	49 89 f2	movq	%rsi, %r10
    6ee7:	41 83 fb 0f	cmpl	$0xf, %r11d
    6eeb:	77 23	ja	0x6f10
    6eed:	49 89 f2	movq	%rsi, %r10
    6ef0:	45 0f b6 0a	movzbl	(%r10), %r9d
    6ef4:	49 ff c2	incq	%r10
    6ef7:	41 8d 43 01	leal	0x1(%r11), %eax
    6efb:	89 47 20	movl	%eax, 0x20(%rdi)
    6efe:	44 89 d8	movl	%r11d, %eax
    6f01:	44 88 4c 07 10	movb	%r9b, 0x10(%rdi,%rax)
    6f06:	44 8b 5f 20	movl	0x20(%rdi), %r11d
    6f0a:	41 83 fb 10	cmpl	$0x10, %r11d
    6f0e:	72 e0	jb	0x6ef0
    6f10:	f3 0f 6f 47 10	movdqu	0x10(%rdi), %xmm0
    6f15:	66 0f 38 40 05 32 39 02 00	pmulld	0x23932(%rip), %xmm0
    6f1e:	f3 0f 6f 0f	movdqu	(%rdi), %xmm1
    6f22:	66 0f fe c1	paddd	%xmm1, %xmm0
    6f26:	66 0f 6f c8	movdqa	%xmm0, %xmm1
    6f2a:	66 0f 72 d1 13	psrld	$0x13, %xmm1
    6f2f:	66 0f 72 f0 0d	pslld	$0xd, %xmm0
    6f34:	66 0f eb c1	por	%xmm1, %xmm0
    6f38:	66 0f 38 40 05 1f 39 02 00	pmulld	0x2391f(%rip), %xmm0
    6f41:	f3 0f 7f 07	movdqu	%xmm0, (%rdi)
    6f45:	48 01 d6	addq	%rdx, %rsi
    6f48:	4d 39 c2	cmpq	%r8, %r10
    6f4b:	76 15	jbe	0x6f62
    6f4d:	66 0f 6f d8	movdqa	%xmm0, %xmm3
    6f51:	eb 5f	jmp	0x6fb2
    6f53:	f3 0f 6f 07	movdqu	(%rdi), %xmm0
    6f57:	49 89 f2	movq	%rsi, %r10
    6f5a:	48 01 d6	addq	%rdx, %rsi
    6f5d:	4d 39 c2	cmpq	%r8, %r10
    6f60:	77 eb	ja	0x6f4d
    6f62:	66 0f 6f 0d e6 38 02 00	movdqa	0x238e6(%rip), %xmm1
    6f6a:	66 0f 6f 15 ee 38 02 00	movdqa	0x238ee(%rip), %xmm2
    6f72:	66 2e 0f 1f 84 00 00 00 00 00	nopw	%cs:(%rax,%rax)
    6f7c:	0f 1f 40 00	nopl	(%rax)
    6f80:	f3 41 0f 6f 1a	movdqu	(%r10), %xmm3
    6f85:	66 0f 38 40 d9	pmulld	%xmm1, %xmm3
    6f8a:	66 0f fe d8	paddd	%xmm0, %xmm3
    6f8e:	66 0f 6f c3	movdqa	%xmm3, %xmm0
    6f92:	66 0f 72 d0 13	psrld	$0x13, %xmm0
    6f97:	66 0f 72 f3 0d	pslld	$0xd, %xmm3
    6f9c:	66 0f eb d8	por	%xmm0, %xmm3
    6fa0:	66 0f 38 40 da	pmulld	%xmm2, %xmm3
    6fa5:	49 83 c2 10	addq	$0x10, %r10
    6fa9:	66 0f 6f c3	movdqa	%xmm3, %xmm0
    6fad:	4d 39 c2	cmpq	%r8, %r10
    6fb0:	76 ce	jbe	0x6f80
    6fb2:	f3 0f 7f 1f	movdqu	%xmm3, (%rdi)
    6fb6:	b0 01	movb	$0x1, %al
    6fb8:	44 29 d6	subl	%r10d, %esi
    6fbb:	89 77 20	movl	%esi, 0x20(%rdi)
    6fbe:	74 24	je	0x6fe4
    6fc0:	31 d2	xorl	%edx, %edx
    6fc2:	66 2e 0f 1f 84 00 00 00 00 00	nopw	%cs:(%rax,%rax)
    6fcc:	0f 1f 40 00	nopl	(%rax)
    6fd0:	41 0f b6 0c 12	movzbl	(%r10,%rdx), %ecx
    6fd5:	88 4c 17 10	movb	%cl, 0x10(%rdi,%rdx)
    6fd9:	48 ff c2	incq	%rdx
    6fdc:	8b 4f 20	movl	0x20(%rdi), %ecx
    6fdf:	48 39 ca	cmpq	%rcx, %rdx
    6fe2:	72 ec	jb	0x6fd0
    6fe4:	5d	popq	%rbp
    6fe5:	c3	retq
    6fe6:	66 2e 0f 1f 84 00 00 00 00 00	nopw	%cs:(%rax,%rax)
__ZNSt3__1plIcNS_11char_traitsIcEENS_9allocatorIcEEEENS_12basic_stringIT_T0_T1_EERKS9_SB_:
    6ff0:	55	pushq	%rbp
    6ff1:	48 89 e5	movq	%rsp, %rbp
    6ff4:	41 57	pushq	%r15
    6ff6:	41 56	pushq	%r14
    6ff8:	41 55	pushq	%r13
    6ffa:	41 54	pushq	%r12
    6ffc:	53	pushq	%rbx
    6ffd:	48 83 ec 18	subq	$0x18, %rsp
    7001:	49 89 f4	movq	%rsi, %r12
    7004:	49 89 fd	movq	%rdi, %r13
    7007:	48 c7 47 10 00 00 00 00	movq	$0x0, 0x10(%rdi)
    700f:	48 c7 47 08 00 00 00 00	movq	$0x0, 0x8(%rdi)
    7017:	48 c7 07 00 00 00 00	movq	$0x0, (%rdi)
    701e:	0f b6 1e	movzbl	(%rsi), %ebx
    7021:	0f b6 0a	movzbl	(%rdx), %ecx
    7024:	f6 c1 01	testb	$0x1, %cl
    7027:	74 11	je	0x703a
    7029:	48 8b 42 08	movq	0x8(%rdx), %rax
    702d:	f6 c3 01	testb	$0x1, %bl
    7030:	75 13	jne	0x7045
    7032:	48 d1 eb	shrq	%rbx
    7035:	49 ff c4	incq	%r12
    7038:	eb 15	jmp	0x704f
    703a:	48 89 c8	movq	%rcx, %rax
    703d:	48 d1 e8	shrq	%rax
    7040:	f6 c3 01	testb	$0x1, %bl
    7043:	74 ed	je	0x7032
    7045:	49 8b 5c 24 08	movq	0x8(%r12), %rbx
    704a:	4d 8b 64 24 10	movq	0x10(%r12), %r12
    704f:	4c 8d 34 18	leaq	(%rax,%rbx), %r14
    7053:	49 83 fe f0	cmpq	$-0x10, %r14
    7057:	0f 83 94 00 00 00	jae	0x70f1
    705d:	48 89 4d c0	movq	%rcx, -0x40(%rbp)
    7061:	48 89 45 d0	movq	%rax, -0x30(%rbp)
    7065:	48 89 55 c8	movq	%rdx, -0x38(%rbp)
    7069:	49 83 fe 16	cmpq	$0x16, %r14
    706d:	77 33	ja	0x70a2
    706f:	8d 04 1b	leal	(%rbx,%rbx), %eax
    7072:	41 88 45 00	movb	%al, (%r13)
    7076:	4d 8d 7d 01	leaq	0x1(%r13), %r15
    707a:	48 85 db	testq	%rbx, %rbx
    707d:	74 0e	je	0x708d
    707f:	4c 89 ff	movq	%r15, %rdi
    7082:	4c 89 e6	movq	%r12, %rsi
    7085:	48 89 da	movq	%rbx, %rdx
    7088:	e8 13 1a 02 00	callq	0x28aa0 ## symbol stub for: _memcpy
    708d:	41 c6 04 1f 00	movb	$0x0, (%r15,%rbx)
    7092:	f6 45 c0 01	testb	$0x1, -0x40(%rbp)
    7096:	74 34	je	0x70cc
    7098:	48 8b 75 c8	movq	-0x38(%rbp), %rsi
    709c:	48 8b 76 10	movq	0x10(%rsi), %rsi
    70a0:	eb 31	jmp	0x70d3
    70a2:	49 83 c6 10	addq	$0x10, %r14
    70a6:	49 83 e6 f0	andq	$-0x10, %r14
    70aa:	4c 89 f7	movq	%r14, %rdi
    70ad:	e8 1c 19 02 00	callq	0x289ce ## symbol stub for: __Znwm
    70b2:	49 89 c7	movq	%rax, %r15
    70b5:	49 89 45 10	movq	%rax, 0x10(%r13)
    70b9:	49 83 ce 01	orq	$0x1, %r14
    70bd:	4d 89 75 00	movq	%r14, (%r13)
    70c1:	49 89 5d 08	movq	%rbx, 0x8(%r13)
    70c5:	48 85 db	testq	%rbx, %rbx
    70c8:	75 b5	jne	0x707f
    70ca:	eb c1	jmp	0x708d
    70cc:	48 8b 75 c8	movq	-0x38(%rbp), %rsi
    70d0:	48 ff c6	incq	%rsi
    70d3:	48 8b 55 d0	movq	-0x30(%rbp), %rdx
    70d7:	4c 89 ef	movq	%r13, %rdi
    70da:	e8 35 18 02 00	callq	0x28914 ## symbol stub for: __ZNSt3__112basic_stringIcNS_11char_traitsIcEENS_9allocatorIcEEE6appendEPKcm
    70df:	4c 89 e8	movq	%r13, %rax
    70e2:	48 83 c4 18	addq	$0x18, %rsp
    70e6:	5b	popq	%rbx
    70e7:	41 5c	popq	%r12
    70e9:	41 5d	popq	%r13
    70eb:	41 5e	popq	%r14
    70ed:	41 5f	popq	%r15
    70ef:	5d	popq	%rbp
    70f0:	c3	retq
    70f1:	4c 89 ef	movq	%r13, %rdi
    70f4:	e8 eb 17 02 00	callq	0x288e4 ## symbol stub for: __ZNKSt3__121__basic_string_commonILb1EE20__throw_length_errorEv
    70f9:	0f 0b	ud2
    70fb:	48 89 c3	movq	%rax, %rbx
    70fe:	41 f6 45 00 01	testb	$0x1, (%r13)
    7103:	74 09	je	0x710e
    7105:	49 8b 7d 10	movq	0x10(%r13), %rdi
    7109:	e8 b4 18 02 00	callq	0x289c2 ## symbol stub for: __ZdlPv
    710e:	48 89 df	movq	%rbx, %rdi
    7111:	e8 bc 17 02 00	callq	0x288d2 ## symbol stub for: __Unwind_Resume
    7116:	0f 0b	ud2
    7118:	0f 1f 84 00 00 00 00 00	nopl	(%rax,%rax)
__ZN18CrossBackupFormat17decryptENSt3__112basic_stringIcNS0_11char_traitsIcEENS0_9allocatorIcEEEES6_S6_RS6_:
    7120:	55	pushq	%rbp
    7121:	48 89 e5	movq	%rsp, %rbp
    7124:	41 57	pushq	%r15
    7126:	41 56	pushq	%r14
    7128:	41 55	pushq	%r13
    712a:	41 54	pushq	%r12
    712c:	53	pushq	%rbx
    712d:	48 83 ec 38	subq	$0x38, %rsp
    7131:	4d 89 c7	movq	%r8, %r15
    7134:	49 89 cc	movq	%rcx, %r12
    7137:	49 89 d6	movq	%rdx, %r14
    713a:	48 89 f7	movq	%rsi, %rdi
    713d:	f6 06 01	testb	$0x1, (%rsi)
    7140:	75 7b	jne	0x71bd
    7142:	48 ff c7	incq	%rdi
    7145:	48 8d 35 b5 3e 02 00	leaq	0x23eb5(%rip), %rsi ## literal pool for: "r+b"
    714c:	e8 fb 18 02 00	callq	0x28a4c ## symbol stub for: _fopen
    7151:	48 85 c0	testq	%rax, %rax
    7154:	74 7c	je	0x71d2
    7156:	48 89 c3	movq	%rax, %rbx
    7159:	4c 8d 6d a8	leaq	-0x58(%rbp), %r13
    715d:	4c 89 ef	movq	%r13, %rdi
    7160:	4c 89 e6	movq	%r12, %rsi
    7163:	e8 d0 17 02 00	callq	0x28938 ## symbol stub for: __ZNSt3__112basic_stringIcNS_11char_traitsIcEENS_9allocatorIcEEEC1ERKS5_
    7168:	48 89 df	movq	%rbx, %rdi
    716b:	4c 89 ee	movq	%r13, %rsi
    716e:	4c 89 fa	movq	%r15, %rdx
    7171:	e8 9a ec ff ff	callq	__Z12decrypt_fileP7__sFILENSt3__112basic_stringIcNS1_11char_traitsIcEENS1_9allocatorIcEEEERS7_ ## decrypt_file(__sFILE*, std::__1::basic_string<char, std::__1::char_traits<char>, std::__1::allocator<char>>, std::__1::basic_string<char, std::__1::char_traits<char>, std::__1::allocator<char>>&)
    7176:	41 89 c4	movl	%eax, %r12d
    7179:	f6 45 a8 01	testb	$0x1, -0x58(%rbp)
    717d:	74 09	je	0x7188
    717f:	48 8b 7d b8	movq	-0x48(%rbp), %rdi
    7183:	e8 3a 18 02 00	callq	0x289c2 ## symbol stub for: __ZdlPv
    7188:	45 85 e4	testl	%r12d, %r12d
    718b:	78 5b	js	0x71e8
    718d:	4c 8d 65 c0	leaq	-0x40(%rbp), %r12
    7191:	4c 89 e7	movq	%r12, %rdi
    7194:	4c 89 f6	movq	%r14, %rsi
    7197:	e8 9c 17 02 00	callq	0x28938 ## symbol stub for: __ZNSt3__112basic_stringIcNS_11char_traitsIcEENS_9allocatorIcEEEC1ERKS5_
    719c:	48 89 df	movq	%rbx, %rdi
    719f:	4c 89 e6	movq	%r12, %rsi
    71a2:	4c 89 fa	movq	%r15, %rdx
    71a5:	e8 f6 ee ff ff	callq	__Z15decompress_fileP7__sFILENSt3__112basic_stringIcNS1_11char_traitsIcEENS1_9allocatorIcEEEERS7_ ## decompress_file(__sFILE*, std::__1::basic_string<char, std::__1::char_traits<char>, std::__1::allocator<char>>, std::__1::basic_string<char, std::__1::char_traits<char>, std::__1::allocator<char>>&)
    71aa:	89 c3	movl	%eax, %ebx
    71ac:	f6 45 c0 01	testb	$0x1, -0x40(%rbp)
    71b0:	74 3b	je	0x71ed
    71b2:	48 8b 7d d0	movq	-0x30(%rbp), %rdi
    71b6:	e8 07 18 02 00	callq	0x289c2 ## symbol stub for: __ZdlPv
    71bb:	eb 30	jmp	0x71ed
    71bd:	48 8b 7f 10	movq	0x10(%rdi), %rdi
    71c1:	48 8d 35 39 3e 02 00	leaq	0x23e39(%rip), %rsi ## literal pool for: "r+b"
    71c8:	e8 7f 18 02 00	callq	0x28a4c ## symbol stub for: _fopen
    71cd:	48 85 c0	testq	%rax, %rax
    71d0:	75 84	jne	0x7156
    71d2:	48 8d 35 2c 3e 02 00	leaq	0x23e2c(%rip), %rsi ## literal pool for: "can't open input file"
    71d9:	4c 89 ff	movq	%r15, %rdi
    71dc:	e8 2d 17 02 00	callq	0x2890e ## symbol stub for: __ZNSt3__112basic_stringIcNS_11char_traitsIcEENS_9allocatorIcEEE6appendEPKc
    71e1:	bb ff ff ff ff	movl	$0xffffffff, %ebx
    71e6:	eb 05	jmp	0x71ed
    71e8:	bb 92 ff ff ff	movl	$0xffffff92, %ebx
    71ed:	89 d8	movl	%ebx, %eax
    71ef:	48 83 c4 38	addq	$0x38, %rsp
    71f3:	5b	popq	%rbx
    71f4:	41 5c	popq	%r12
    71f6:	41 5d	popq	%r13
    71f8:	41 5e	popq	%r14
    71fa:	41 5f	popq	%r15
    71fc:	5d	popq	%rbp
    71fd:	c3	retq
    71fe:	48 89 c3	movq	%rax, %rbx
    7201:	f6 45 c0 01	testb	$0x1, -0x40(%rbp)
    7205:	74 18	je	0x721f
    7207:	48 8b 7d d0	movq	-0x30(%rbp), %rdi
    720b:	eb 0d	jmp	0x721a
    720d:	48 89 c3	movq	%rax, %rbx
    7210:	f6 45 a8 01	testb	$0x1, -0x58(%rbp)
    7214:	74 09	je	0x721f
    7216:	48 8b 7d b8	movq	-0x48(%rbp), %rdi
    721a:	e8 a3 17 02 00	callq	0x289c2 ## symbol stub for: __ZdlPv
    721f:	48 89 df	movq	%rbx, %rdi
    7222:	e8 ab 16 02 00	callq	0x288d2 ## symbol stub for: __Unwind_Resume
    7227:	0f 0b	ud2
    7229:	0f 1f 80 00 00 00 00	nopl	(%rax)
__ZNSt3__124__put_character_sequenceIcNS_11char_traitsIcEEEERNS_13basic_ostreamIT_T0_EES7_PKS4_m:
    7230:	55	pushq	%rbp
    7231:	48 89 e5	movq	%rsp, %rbp
    7234:	41 57	pushq	%r15
    7236:	41 56	pushq	%r14
    7238:	41 55	pushq	%r13
    723a:	41 54	pushq	%r12
    723c:	53	pushq	%rbx
    723d:	48 83 ec 28	subq	$0x28, %rsp
    7241:	49 89 d6	movq	%rdx, %r14
    7244:	49 89 f7	movq	%rsi, %r15
    7247:	48 89 fb	movq	%rdi, %rbx
    724a:	48 8d 7d b0	leaq	-0x50(%rbp), %rdi
    724e:	48 89 de	movq	%rbx, %rsi
    7251:	e8 fa 16 02 00	callq	0x28950 ## symbol stub for: __ZNSt3__113basic_ostreamIcNS_11char_traitsIcEEE6sentryC1ERS3_
    7256:	80 7d b0 00	cmpb	$0x0, -0x50(%rbp)
    725a:	0f 84 ae 00 00 00	je	0x730e
    7260:	48 8b 03	movq	(%rbx), %rax
    7263:	48 8b 40 e8	movq	-0x18(%rax), %rax
    7267:	4c 8d 24 03	leaq	(%rbx,%rax), %r12
    726b:	48 8b 7c 03 28	movq	0x28(%rbx,%rax), %rdi
    7270:	44 8b 6c 03 08	movl	0x8(%rbx,%rax), %r13d
    7275:	8b 84 03 90 00 00 00	movl	0x90(%rbx,%rax), %eax
    727c:	83 f8 ff	cmpl	$-0x1, %eax
    727f:	75 4a	jne	0x72cb
    7281:	48 89 7d c0	movq	%rdi, -0x40(%rbp)
    7285:	48 8d 7d c8	leaq	-0x38(%rbp), %rdi
    7289:	4c 89 e6	movq	%r12, %rsi
    728c:	e8 5f 16 02 00	callq	0x288f0 ## symbol stub for: __ZNKSt3__18ios_base6getlocEv
    7291:	48 8b 35 a8 4d 02 00	movq	0x24da8(%rip), %rsi ## literal pool symbol address: __ZNSt3__15ctypeIcE2idE
    7298:	48 8d 7d c8	leaq	-0x38(%rbp), %rdi
    729c:	e8 49 16 02 00	callq	0x288ea ## symbol stub for: __ZNKSt3__16locale9use_facetERNS0_2idE
    72a1:	48 8b 08	movq	(%rax), %rcx
    72a4:	48 89 c7	movq	%rax, %rdi
    72a7:	be 20 00 00 00	movl	$0x20, %esi
    72ac:	ff 51 38	callq	*0x38(%rcx)
    72af:	88 45 d7	movb	%al, -0x29(%rbp)
    72b2:	48 8d 7d c8	leaq	-0x38(%rbp), %rdi
    72b6:	e8 d1 16 02 00	callq	0x2898c ## symbol stub for: __ZNSt3__16localeD1Ev
    72bb:	0f be 45 d7	movsbl	-0x29(%rbp), %eax
    72bf:	41 89 84 24 90 00 00 00	movl	%eax, 0x90(%r12)
    72c7:	48 8b 7d c0	movq	-0x40(%rbp), %rdi
    72cb:	4d 01 fe	addq	%r15, %r14
    72ce:	41 81 e5 b0 00 00 00	andl	$0xb0, %r13d
    72d5:	41 83 fd 20	cmpl	$0x20, %r13d
    72d9:	4c 89 fa	movq	%r15, %rdx
    72dc:	49 0f 44 d6	cmoveq	%r14, %rdx
    72e0:	44 0f be c8	movsbl	%al, %r9d
    72e4:	4c 89 fe	movq	%r15, %rsi
    72e7:	4c 89 f1	movq	%r14, %rcx
    72ea:	4d 89 e0	movq	%r12, %r8
    72ed:	e8 9e 00 00 00	callq	__ZNSt3__116__pad_and_outputIcNS_11char_traitsIcEEEENS_19ostreambuf_iteratorIT_T0_EES6_PKS4_S8_S8_RNS_8ios_baseES4_ ## std::__1::ostreambuf_iterator<char, std::__1::char_traits<char>> std::__1::__pad_and_output<char, std::__1::char_traits<char>>(std::__1::ostreambuf_iterator<char, std::__1::char_traits<char>>, char const*, char const*, char const*, std::__1::ios_base&, char)
    72f2:	48 85 c0	testq	%rax, %rax
    72f5:	75 17	jne	0x730e
    72f7:	48 8b 03	movq	(%rbx), %rax
    72fa:	48 8b 40 e8	movq	-0x18(%rax), %rax
    72fe:	48 8d 3c 03	leaq	(%rbx,%rax), %rdi
    7302:	8b 74 03 20	movl	0x20(%rbx,%rax), %esi
    7306:	83 ce 05	orl	$0x5, %esi
    7309:	e8 90 16 02 00	callq	0x2899e ## symbol stub for: __ZNSt3__18ios_base5clearEj
    730e:	48 8d 7d b0	leaq	-0x50(%rbp), %rdi
    7312:	e8 3f 16 02 00	callq	0x28956 ## symbol stub for: __ZNSt3__113basic_ostreamIcNS_11char_traitsIcEEE6sentryD1Ev
    7317:	48 89 d8	movq	%rbx, %rax
    731a:	48 83 c4 28	addq	$0x28, %rsp
    731e:	5b	popq	%rbx
    731f:	41 5c	popq	%r12
    7321:	41 5d	popq	%r13
    7323:	41 5e	popq	%r14
    7325:	41 5f	popq	%r15
    7327:	5d	popq	%rbp
    7328:	c3	retq
    7329:	eb 0e	jmp	0x7339
    732b:	49 89 c6	movq	%rax, %r14
    732e:	48 8d 7d c8	leaq	-0x38(%rbp), %rdi
    7332:	e8 55 16 02 00	callq	0x2898c ## symbol stub for: __ZNSt3__16localeD1Ev
    7337:	eb 03	jmp	0x733c
    7339:	49 89 c6	movq	%rax, %r14
    733c:	48 8d 7d b0	leaq	-0x50(%rbp), %rdi
    7340:	e8 11 16 02 00	callq	0x28956 ## symbol stub for: __ZNSt3__113basic_ostreamIcNS_11char_traitsIcEEE6sentryD1Ev
    7345:	eb 03	jmp	0x734a
    7347:	49 89 c6	movq	%rax, %r14
    734a:	4c 89 f7	movq	%r14, %rdi
    734d:	e8 9a 16 02 00	callq	0x289ec ## symbol stub for: ___cxa_begin_catch
    7352:	48 8b 03	movq	(%rbx), %rax
    7355:	48 8b 78 e8	movq	-0x18(%rax), %rdi
